
========================================================================

** ELF Header Information

    File Name: .\Objects\Nonsecure.axf

    Machine class: ELFCLASS32 (32-bit)
    Data encoding: ELFDATA2LSB (Little endian)
    Header version: EV_CURRENT (Current version)
    Operating System ABI: none
    ABI Version: 0
    File Type: ET_EXEC (Executable) (2)
    Machine: EM_ARM (ARM)

    Image Entry point: 0x10010285
    Flags: EF_ARM_HASENTRY (0x05000002)

    ARM ELF revision: 5 (ABI version 2)

    Conforms to Base float procedure-call standard

    Built with
    Component: Arm Compiler for Embedded 6.24 Tool: armlink [5f371500]

    Header size: 52 bytes (0x34)
    Program header entry size: 32 bytes (0x20)
    Section header entry size: 40 bytes (0x28)

    Program header entries: 1
    Section header entries: 17

    Program header offset: 38048 (0x000094a0)
    Section header offset: 38080 (0x000094c0)

    Section header string table index: 16

========================================================================

** Program header #0 (PT_LOAD) [PF_X + PF_W + PF_R + PF_ARM_ENTRY]
    Size : 9380 bytes (5708 bytes in file)
    Virtual address: 0x10010000 (Alignment 4)


========================================================================

** Section #1 'EXE_ROM' (SHT_PROGBITS) [SHF_ALLOC + SHF_EXECINSTR]
    Size   : 5696 bytes (alignment 4)
    Address: 0x10010000

    $d.realdata
    __tagsym$$used.0
    __Vectors
        0x10010000:    30008200    ...0    DCD    805339648
        0x10010004:    100108e9    ....    DCD    268503273
        0x10010008:    10010805    ....    DCD    268503045
        0x1001000c:    10010855    U...    DCD    268503125
        0x10010010:    10010805    ....    DCD    268503045
        0x10010014:    10010805    ....    DCD    268503045
        0x10010018:    10010805    ....    DCD    268503045
        0x1001001c:    10010805    ....    DCD    268503045
        0x10010020:    00000000    ....    DCD    0
        0x10010024:    00000000    ....    DCD    0
        0x10010028:    00000000    ....    DCD    0
        0x1001002c:    10010805    ....    DCD    268503045
        0x10010030:    10010805    ....    DCD    268503045
        0x10010034:    00000000    ....    DCD    0
        0x10010038:    10010805    ....    DCD    268503045
        0x1001003c:    100109dd    ....    DCD    268503517
        0x10010040:    10010805    ....    DCD    268503045
        0x10010044:    10010805    ....    DCD    268503045
        0x10010048:    10010805    ....    DCD    268503045
        0x1001004c:    10010805    ....    DCD    268503045
        0x10010050:    10010805    ....    DCD    268503045
        0x10010054:    10010805    ....    DCD    268503045
        0x10010058:    10010805    ....    DCD    268503045
        0x1001005c:    10010805    ....    DCD    268503045
        0x10010060:    10010805    ....    DCD    268503045
        0x10010064:    10010805    ....    DCD    268503045
        0x10010068:    10010805    ....    DCD    268503045
        0x1001006c:    10010805    ....    DCD    268503045
        0x10010070:    10010805    ....    DCD    268503045
        0x10010074:    10010805    ....    DCD    268503045
        0x10010078:    10010805    ....    DCD    268503045
        0x1001007c:    10010805    ....    DCD    268503045
        0x10010080:    10010805    ....    DCD    268503045
        0x10010084:    10010805    ....    DCD    268503045
        0x10010088:    10010805    ....    DCD    268503045
        0x1001008c:    10010805    ....    DCD    268503045
        0x10010090:    10010805    ....    DCD    268503045
        0x10010094:    10010805    ....    DCD    268503045
        0x10010098:    10010805    ....    DCD    268503045
        0x1001009c:    10010805    ....    DCD    268503045
        0x100100a0:    10010805    ....    DCD    268503045
        0x100100a4:    10010805    ....    DCD    268503045
        0x100100a8:    10010805    ....    DCD    268503045
        0x100100ac:    10010805    ....    DCD    268503045
        0x100100b0:    10010805    ....    DCD    268503045
        0x100100b4:    10010805    ....    DCD    268503045
        0x100100b8:    10010805    ....    DCD    268503045
        0x100100bc:    10010805    ....    DCD    268503045
        0x100100c0:    10010805    ....    DCD    268503045
        0x100100c4:    10010805    ....    DCD    268503045
        0x100100c8:    10010805    ....    DCD    268503045
        0x100100cc:    10010805    ....    DCD    268503045
        0x100100d0:    10010805    ....    DCD    268503045
        0x100100d4:    10010805    ....    DCD    268503045
        0x100100d8:    10010805    ....    DCD    268503045
        0x100100dc:    10010805    ....    DCD    268503045
        0x100100e0:    10010805    ....    DCD    268503045
        0x100100e4:    10010805    ....    DCD    268503045
        0x100100e8:    10010805    ....    DCD    268503045
        0x100100ec:    10010805    ....    DCD    268503045
        0x100100f0:    10010805    ....    DCD    268503045
        0x100100f4:    10010805    ....    DCD    268503045
        0x100100f8:    10010805    ....    DCD    268503045
        0x100100fc:    10010805    ....    DCD    268503045
        0x10010100:    10010805    ....    DCD    268503045
        0x10010104:    10010805    ....    DCD    268503045
        0x10010108:    10010805    ....    DCD    268503045
        0x1001010c:    10010805    ....    DCD    268503045
        0x10010110:    10010805    ....    DCD    268503045
        0x10010114:    10010805    ....    DCD    268503045
        0x10010118:    10010805    ....    DCD    268503045
        0x1001011c:    10010805    ....    DCD    268503045
        0x10010120:    10010805    ....    DCD    268503045
        0x10010124:    10010805    ....    DCD    268503045
        0x10010128:    10010805    ....    DCD    268503045
        0x1001012c:    10010805    ....    DCD    268503045
        0x10010130:    1001091d    ....    DCD    268503325
        0x10010134:    10010805    ....    DCD    268503045
        0x10010138:    10010805    ....    DCD    268503045
        0x1001013c:    10010805    ....    DCD    268503045
        0x10010140:    10010805    ....    DCD    268503045
        0x10010144:    10010805    ....    DCD    268503045
        0x10010148:    10010805    ....    DCD    268503045
        0x1001014c:    10010805    ....    DCD    268503045
        0x10010150:    10010805    ....    DCD    268503045
        0x10010154:    10010805    ....    DCD    268503045
        0x10010158:    10010805    ....    DCD    268503045
        0x1001015c:    10010805    ....    DCD    268503045
        0x10010160:    10010805    ....    DCD    268503045
        0x10010164:    10010805    ....    DCD    268503045
        0x10010168:    10010805    ....    DCD    268503045
        0x1001016c:    10010805    ....    DCD    268503045
        0x10010170:    10010805    ....    DCD    268503045
        0x10010174:    10010805    ....    DCD    268503045
        0x10010178:    10010805    ....    DCD    268503045
        0x1001017c:    10010805    ....    DCD    268503045
        0x10010180:    10010805    ....    DCD    268503045
        0x10010184:    10010805    ....    DCD    268503045
        0x10010188:    10010805    ....    DCD    268503045
        0x1001018c:    10010805    ....    DCD    268503045
        0x10010190:    10010805    ....    DCD    268503045
        0x10010194:    10010805    ....    DCD    268503045
        0x10010198:    10010805    ....    DCD    268503045
        0x1001019c:    10010805    ....    DCD    268503045
        0x100101a0:    10010805    ....    DCD    268503045
        0x100101a4:    10010805    ....    DCD    268503045
        0x100101a8:    10010805    ....    DCD    268503045
        0x100101ac:    10010805    ....    DCD    268503045
        0x100101b0:    10010805    ....    DCD    268503045
        0x100101b4:    10010805    ....    DCD    268503045
        0x100101b8:    10010805    ....    DCD    268503045
        0x100101bc:    10010805    ....    DCD    268503045
        0x100101c0:    10010805    ....    DCD    268503045
        0x100101c4:    10010805    ....    DCD    268503045
        0x100101c8:    10010805    ....    DCD    268503045
        0x100101cc:    10010805    ....    DCD    268503045
        0x100101d0:    10010805    ....    DCD    268503045
        0x100101d4:    10010805    ....    DCD    268503045
        0x100101d8:    10010805    ....    DCD    268503045
        0x100101dc:    10010805    ....    DCD    268503045
        0x100101e0:    10010805    ....    DCD    268503045
        0x100101e4:    10010805    ....    DCD    268503045
        0x100101e8:    10010805    ....    DCD    268503045
        0x100101ec:    10010805    ....    DCD    268503045
        0x100101f0:    10010805    ....    DCD    268503045
        0x100101f4:    10010805    ....    DCD    268503045
        0x100101f8:    10010805    ....    DCD    268503045
        0x100101fc:    10010805    ....    DCD    268503045
        0x10010200:    10010805    ....    DCD    268503045
        0x10010204:    10010805    ....    DCD    268503045
        0x10010208:    10010805    ....    DCD    268503045
        0x1001020c:    10010805    ....    DCD    268503045
        0x10010210:    10010805    ....    DCD    268503045
        0x10010214:    10010805    ....    DCD    268503045
        0x10010218:    10010805    ....    DCD    268503045
        0x1001021c:    10010805    ....    DCD    268503045
        0x10010220:    10010805    ....    DCD    268503045
        0x10010224:    10010805    ....    DCD    268503045
        0x10010228:    10010805    ....    DCD    268503045
        0x1001022c:    10010805    ....    DCD    268503045
        0x10010230:    10010805    ....    DCD    268503045
        0x10010234:    10010805    ....    DCD    268503045
        0x10010238:    10010805    ....    DCD    268503045
        0x1001023c:    10010805    ....    DCD    268503045
        0x10010240:    10010805    ....    DCD    268503045
        0x10010244:    10010805    ....    DCD    268503045
        0x10010248:    10010805    ....    DCD    268503045
        0x1001024c:    10010805    ....    DCD    268503045
        0x10010250:    10010805    ....    DCD    268503045
        0x10010254:    10010805    ....    DCD    268503045
        0x10010258:    10010805    ....    DCD    268503045
        0x1001025c:    10010805    ....    DCD    268503045
        0x10010260:    10010805    ....    DCD    268503045
        0x10010264:    10010805    ....    DCD    268503045
        0x10010268:    10010805    ....    DCD    268503045
        0x1001026c:    10010805    ....    DCD    268503045
        0x10010270:    10010805    ....    DCD    268503045
        0x10010274:    10010805    ....    DCD    268503045
        0x10010278:    10010805    ....    DCD    268503045
        0x1001027c:    00000000    ....    DCD    0
        0x10010280:    00000000    ....    DCD    0
    $t
    .ARM.Collect$$$$00000000
    .ARM.Collect$$$$00000003
    __main
    _main_stk
        0x10010284:    f8dfd00c    ....    LDR      sp,__lit__00000000 ; [0x10010294] = 0x30008200
    .ARM.Collect$$$$00000004
    _main_scatterload
        0x10010288:    f000fa06    ....    BL       __scatterload ; 0x10010698
    .ARM.Collect$$$$00000008
    .ARM.Collect$$$$0000000A
    .ARM.Collect$$$$0000000B
    __main_after_scatterload
    _main_clock
    _main_cpp_init
    _main_init
        0x1001028c:    4800        .H      LDR      r0,[pc,#0] ; [0x10010290] = 0x10010b59
        0x1001028e:    4700        .G      BX       r0
    $d
        0x10010290:    10010b59    Y...    DCD    268503897
    .ARM.Collect$$$$00002714
    __lit__00000000
    .ARM.Collect$$$$0000000D
    .ARM.Collect$$$$0000000F
    __rt_final_cpp
    __rt_final_exit
        0x10010294:    30008200    ...0    DCD    805339648
    $t
    .text
    __aeabi_uidiv
    __aeabi_uidivmod
        0x10010298:    b530        0.      PUSH     {r4,r5,lr}
        0x1001029a:    460b        .F      MOV      r3,r1
        0x1001029c:    4601        .F      MOV      r1,r0
        0x1001029e:    2000        .       MOVS     r0,#0
        0x100102a0:    2220         "      MOVS     r2,#0x20
        0x100102a2:    2401        .$      MOVS     r4,#1
        0x100102a4:    e009        ..      B        0x100102ba ; __aeabi_uidiv + 34
        0x100102a6:    fa21f502    !...    LSR      r5,r1,r2
        0x100102aa:    429d        .B      CMP      r5,r3
        0x100102ac:    d305        ..      BCC      0x100102ba ; __aeabi_uidiv + 34
        0x100102ae:    fa03f502    ....    LSL      r5,r3,r2
        0x100102b2:    1b49        I.      SUBS     r1,r1,r5
        0x100102b4:    fa04f502    ....    LSL      r5,r4,r2
        0x100102b8:    4428        (D      ADD      r0,r0,r5
        0x100102ba:    1e15        ..      SUBS     r5,r2,#0
        0x100102bc:    f1a20201    ....    SUB      r2,r2,#1
        0x100102c0:    dcf1        ..      BGT      0x100102a6 ; __aeabi_uidiv + 14
        0x100102c2:    bd30        0.      POP      {r4,r5,pc}
    .text
    __aeabi_uldivmod
        0x100102c4:    e92d5ff0    -.._    PUSH     {r4-r12,lr}
        0x100102c8:    4605        .F      MOV      r5,r0
        0x100102ca:    2000        .       MOVS     r0,#0
        0x100102cc:    4692        .F      MOV      r10,r2
        0x100102ce:    469b        .F      MOV      r11,r3
        0x100102d0:    4688        .F      MOV      r8,r1
        0x100102d2:    4606        .F      MOV      r6,r0
        0x100102d4:    4681        .F      MOV      r9,r0
        0x100102d6:    2440        @$      MOVS     r4,#0x40
        0x100102d8:    e01b        ..      B        0x10010312 ; __aeabi_uldivmod + 78
        0x100102da:    4628        (F      MOV      r0,r5
        0x100102dc:    4641        AF      MOV      r1,r8
        0x100102de:    4647        GF      MOV      r7,r8
        0x100102e0:    4622        "F      MOV      r2,r4
        0x100102e2:    f000fa00    ....    BL       __aeabi_llsr ; 0x100106e6
        0x100102e6:    4653        SF      MOV      r3,r10
        0x100102e8:    465a        ZF      MOV      r2,r11
        0x100102ea:    1ac0        ..      SUBS     r0,r0,r3
        0x100102ec:    4191        .A      SBCS     r1,r1,r2
        0x100102ee:    d310        ..      BCC      0x10010312 ; __aeabi_uldivmod + 78
        0x100102f0:    4611        .F      MOV      r1,r2
        0x100102f2:    4618        .F      MOV      r0,r3
        0x100102f4:    4622        "F      MOV      r2,r4
        0x100102f6:    f000f9e7    ....    BL       __aeabi_llsl ; 0x100106c8
        0x100102fa:    1a2d        -.      SUBS     r5,r5,r0
        0x100102fc:    eb670801    g...    SBC      r8,r7,r1
        0x10010300:    464f        OF      MOV      r7,r9
        0x10010302:    4622        "F      MOV      r2,r4
        0x10010304:    2001        .       MOVS     r0,#1
        0x10010306:    2100        .!      MOVS     r1,#0
        0x10010308:    f000f9de    ....    BL       __aeabi_llsl ; 0x100106c8
        0x1001030c:    eb170900    ....    ADDS     r9,r7,r0
        0x10010310:    414e        NA      ADCS     r6,r6,r1
        0x10010312:    1e20         .      SUBS     r0,r4,#0
        0x10010314:    f1a40401    ....    SUB      r4,r4,#1
        0x10010318:    dcdf        ..      BGT      0x100102da ; __aeabi_uldivmod + 22
        0x1001031a:    4648        HF      MOV      r0,r9
        0x1001031c:    4631        1F      MOV      r1,r6
        0x1001031e:    462a        *F      MOV      r2,r5
        0x10010320:    4643        CF      MOV      r3,r8
        0x10010322:    e8bd9ff0    ....    POP      {r4-r12,pc}
    .text
    .text
    __I$use$fp
    __aeabi_dadd
        0x10010326:    e92d4ffe    -..O    PUSH     {r1-r11,lr}
        0x1001032a:    4680        .F      MOV      r8,r0
        0x1001032c:    ea810003    ....    EOR      r0,r1,r3
        0x10010330:    0fc0        ..      LSRS     r0,r0,#31
        0x10010332:    460c        .F      MOV      r4,r1
        0x10010334:    9000        ..      STR      r0,[sp,#0]
        0x10010336:    f0214100    !..A    BIC      r1,r1,#0x80000000
        0x1001033a:    f0234500    #..E    BIC      r5,r3,#0x80000000
        0x1001033e:    ebb80002    ....    SUBS     r0,r8,r2
        0x10010342:    41a9        .A      SBCS     r1,r1,r5
        0x10010344:    d205        ..      BCS      0x10010352 ; __I$use$fp + 44
        0x10010346:    4640        @F      MOV      r0,r8
        0x10010348:    4621        !F      MOV      r1,r4
        0x1001034a:    4690        .F      MOV      r8,r2
        0x1001034c:    461c        .F      MOV      r4,r3
        0x1001034e:    460b        .F      MOV      r3,r1
        0x10010350:    4602        .F      MOV      r2,r0
        0x10010352:    f0234000    #..@    BIC      r0,r3,#0x80000000
        0x10010356:    4310        .C      ORRS     r0,r0,r2
        0x10010358:    d047        G.      BEQ      0x100103ea ; __I$use$fp + 196
        0x1001035a:    0d27        '.      LSRS     r7,r4,#20
        0x1001035c:    f3c7000a    ....    UBFX     r0,r7,#0,#11
        0x10010360:    f3c3510a    ...Q    UBFX     r1,r3,#20,#11
        0x10010364:    9002        ..      STR      r0,[sp,#8]
        0x10010366:    1a40        @.      SUBS     r0,r0,r1
        0x10010368:    9001        ..      STR      r0,[sp,#4]
        0x1001036a:    2840        @(      CMP      r0,#0x40
        0x1001036c:    da6b        k.      BGE      0x10010446 ; __I$use$fp + 288
        0x1001036e:    f3c30013    ....    UBFX     r0,r3,#0,#20
        0x10010372:    f4401b80    @...    ORR      r11,r0,#0x100000
        0x10010376:    9800        ..      LDR      r0,[sp,#0]
        0x10010378:    4692        .F      MOV      r10,r2
        0x1001037a:    b120         .      CBZ      r0,0x10010386 ; __I$use$fp + 96
        0x1001037c:    2300        .#      MOVS     r3,#0
        0x1001037e:    ebd20a03    ....    RSBS     r10,r2,r3
        0x10010382:    eb630b0b    c...    SBC      r11,r3,r11
        0x10010386:    9801        ..      LDR      r0,[sp,#4]
        0x10010388:    4659        YF      MOV      r1,r11
        0x1001038a:    f1c00240    ..@.    RSB      r2,r0,#0x40
        0x1001038e:    4650        PF      MOV      r0,r10
        0x10010390:    f000f99a    ....    BL       __aeabi_llsl ; 0x100106c8
        0x10010394:    4606        .F      MOV      r6,r0
        0x10010396:    460d        .F      MOV      r5,r1
        0x10010398:    4650        PF      MOV      r0,r10
        0x1001039a:    4659        YF      MOV      r1,r11
        0x1001039c:    9a01        ..      LDR      r2,[sp,#4]
        0x1001039e:    f000f9b2    ....    BL       __aeabi_lasr ; 0x10010706
        0x100103a2:    eb100008    ....    ADDS     r0,r0,r8
        0x100103a6:    4161        aA      ADCS     r1,r1,r4
        0x100103a8:    2400        .$      MOVS     r4,#0
        0x100103aa:    ea875211    ...R    EOR      r2,r7,r1,LSR #20
        0x100103ae:    ea8473e7    ...s    EOR      r3,r4,r7,ASR #31
        0x100103b2:    431a        .C      ORRS     r2,r2,r3
        0x100103b4:    d040        @.      BEQ      0x10010438 ; __I$use$fp + 274
        0x100103b6:    9a00        ..      LDR      r2,[sp,#0]
        0x100103b8:    b362        b.      CBZ      r2,0x10010414 ; __I$use$fp + 238
        0x100103ba:    9a01        ..      LDR      r2,[sp,#4]
        0x100103bc:    2a01        .*      CMP      r2,#1
        0x100103be:    ea4f5207    O..R    LSL      r2,r7,#20
        0x100103c2:    dc15        ..      BGT      0x100103f0 ; __I$use$fp + 202
        0x100103c4:    1b00        ..      SUBS     r0,r0,r4
        0x100103c6:    eb610102    a...    SBC      r1,r1,r2
        0x100103ca:    f04f4200    O..B    MOV      r2,#0x80000000
        0x100103ce:    ea025207    ...R    AND      r2,r2,r7,LSL #20
        0x100103d2:    e9cd4200    ...B    STRD     r4,r2,[sp,#0]
        0x100103d6:    1c00        ..      ADDS     r0,r0,#0
        0x100103d8:    f5411180    A...    ADC      r1,r1,#0x100000
        0x100103dc:    4632        2F      MOV      r2,r6
        0x100103de:    462b        +F      MOV      r3,r5
        0x100103e0:    f000f9b2    ....    BL       _double_epilogue ; 0x10010748
        0x100103e4:    b003        ..      ADD      sp,sp,#0xc
        0x100103e6:    e8bd8ff0    ....    POP      {r4-r11,pc}
        0x100103ea:    4640        @F      MOV      r0,r8
        0x100103ec:    4621        !F      MOV      r1,r4
        0x100103ee:    e7f9        ..      B        0x100103e4 ; __I$use$fp + 190
        0x100103f0:    1b00        ..      SUBS     r0,r0,r4
        0x100103f2:    eb610102    a...    SBC      r1,r1,r2
        0x100103f6:    1c00        ..      ADDS     r0,r0,#0
        0x100103f8:    f5411380    A...    ADC      r3,r1,#0x100000
        0x100103fc:    1800        ..      ADDS     r0,r0,r0
        0x100103fe:    415b        [A      ADCS     r3,r3,r3
        0x10010400:    1820         .      ADDS     r0,r4,r0
        0x10010402:    f5a21700    ....    SUB      r7,r2,#0x200000
        0x10010406:    eb470103    G...    ADC      r1,r7,r3
        0x1001040a:    ea4070d5    @..p    ORR      r0,r0,r5,LSR #31
        0x1001040e:    19b6        ..      ADDS     r6,r6,r6
        0x10010410:    416d        mA      ADCS     r5,r5,r5
        0x10010412:    e011        ..      B        0x10010438 ; __I$use$fp + 274
        0x10010414:    086d        m.      LSRS     r5,r5,#1
        0x10010416:    ea4f0636    O.6.    RRX      r6,r6
        0x1001041a:    ea4575c0    E..u    ORR      r5,r5,r0,LSL #31
        0x1001041e:    ea4f5207    O..R    LSL      r2,r7,#20
        0x10010422:    1b00        ..      SUBS     r0,r0,r4
        0x10010424:    eb610102    a...    SBC      r1,r1,r2
        0x10010428:    1c00        ..      ADDS     r0,r0,#0
        0x1001042a:    f5411180    A...    ADC      r1,r1,#0x100000
        0x1001042e:    0849        I.      LSRS     r1,r1,#1
        0x10010430:    ea4f0030    O.0.    RRX      r0,r0
        0x10010434:    1900        ..      ADDS     r0,r0,r4
        0x10010436:    4151        QA      ADCS     r1,r1,r2
        0x10010438:    4632        2F      MOV      r2,r6
        0x1001043a:    462b        +F      MOV      r3,r5
        0x1001043c:    b003        ..      ADD      sp,sp,#0xc
        0x1001043e:    e8bd4ff0    ...O    POP      {r4-r11,lr}
        0x10010442:    f000b972    ..r.    B.W      _double_round ; 0x1001072a
        0x10010446:    9800        ..      LDR      r0,[sp,#0]
        0x10010448:    2201        ."      MOVS     r2,#1
        0x1001044a:    0040        @.      LSLS     r0,r0,#1
        0x1001044c:    2300        .#      MOVS     r3,#0
        0x1001044e:    ebd00202    ....    RSBS     r2,r0,r2
        0x10010452:    eb6373e0    c..s    SBC      r3,r3,r0,ASR #31
        0x10010456:    9800        ..      LDR      r0,[sp,#0]
        0x10010458:    4621        !F      MOV      r1,r4
        0x1001045a:    ea4f74e0    O..t    ASR      r4,r0,#31
        0x1001045e:    ebb80000    ....    SUBS     r0,r8,r0
        0x10010462:    eb610104    a...    SBC      r1,r1,r4
        0x10010466:    e7e9        ..      B        0x1001043c ; __I$use$fp + 278
    __aeabi_dsub
        0x10010468:    f0834300    ...C    EOR      r3,r3,#0x80000000
        0x1001046c:    e75b        [.      B        __I$use$fp ; 0x10010326
    __aeabi_drsub
        0x1001046e:    f0814100    ...A    EOR      r1,r1,#0x80000000
        0x10010472:    e758        X.      B        __I$use$fp ; 0x10010326
    .text
    __aeabi_dmul
        0x10010474:    e92d4ffe    -..O    PUSH     {r1-r11,lr}
        0x10010478:    ea810403    ....    EOR      r4,r1,r3
        0x1001047c:    f0044400    ...D    AND      r4,r4,#0x80000000
        0x10010480:    f0214100    !..A    BIC      r1,r1,#0x80000000
        0x10010484:    9400        ..      STR      r4,[sp,#0]
        0x10010486:    f04f0b00    O...    MOV      r11,#0
        0x1001048a:    f0234300    #..C    BIC      r3,r3,#0x80000000
        0x1001048e:    ea500401    P...    ORRS     r4,r0,r1
        0x10010492:    d05e        ^.      BEQ      0x10010552 ; __aeabi_dmul + 222
        0x10010494:    ea520403    R...    ORRS     r4,r2,r3
        0x10010498:    d05b        [.      BEQ      0x10010552 ; __aeabi_dmul + 222
        0x1001049a:    f3c3540a    ...T    UBFX     r4,r3,#20,#11
        0x1001049e:    f3c1550a    ...U    UBFX     r5,r1,#20,#11
        0x100104a2:    442c        ,D      ADD      r4,r4,r5
        0x100104a4:    f2a434f3    ...4    SUB      r4,r4,#0x3f3
        0x100104a8:    9401        ..      STR      r4,[sp,#4]
        0x100104aa:    fba05402    ...T    UMULL    r5,r4,r0,r2
        0x100104ae:    f3c10113    ....    UBFX     r1,r1,#0,#20
        0x100104b2:    f4411180    A...    ORR      r1,r1,#0x100000
        0x100104b6:    f3c30313    ....    UBFX     r3,r3,#0,#20
        0x100104ba:    f4431380    C...    ORR      r3,r3,#0x100000
        0x100104be:    fb014402    ...D    MLA      r4,r1,r2,r4
        0x100104c2:    fb004e03    ...N    MLA      lr,r0,r3,r4
        0x100104c6:    0a84        ..      LSRS     r4,r0,#10
        0x100104c8:    0a97        ..      LSRS     r7,r2,#10
        0x100104ca:    ea445481    D..T    ORR      r4,r4,r1,LSL #22
        0x100104ce:    ea475783    G..W    ORR      r7,r7,r3,LSL #22
        0x100104d2:    fba46807    ...h    UMULL    r6,r8,r4,r7
        0x100104d6:    9502        ..      STR      r5,[sp,#8]
        0x100104d8:    0a8d        ..      LSRS     r5,r1,#10
        0x100104da:    fb058507    ....    MLA      r5,r5,r7,r8
        0x100104de:    ea4f2c93    O..,    LSR      r12,r3,#10
        0x100104e2:    fb04540c    ...T    MLA      r4,r4,r12,r5
        0x100104e6:    0527        '.      LSLS     r7,r4,#20
        0x100104e8:    9d02        ..      LDR      r5,[sp,#8]
        0x100104ea:    ea4f5806    O..X    LSL      r8,r6,#20
        0x100104ee:    ea473716    G..7    ORR      r7,r7,r6,LSR #12
        0x100104f2:    ebb50508    ....    SUBS     r5,r5,r8
        0x100104f6:    eb6e0c07    n...    SBC      r12,lr,r7
        0x100104fa:    0e87        ..      LSRS     r7,r0,#26
        0x100104fc:    0e92        ..      LSRS     r2,r2,#26
        0x100104fe:    ea471781    G...    ORR      r7,r7,r1,LSL #6
        0x10010502:    ea421283    B...    ORR      r2,r2,r3,LSL #6
        0x10010506:    fba70102    ....    UMULL    r0,r1,r7,r2
        0x1001050a:    ebb6010b    ....    SUBS     r1,r6,r11
        0x1001050e:    eb640400    d...    SBC      r4,r4,r0
        0x10010512:    0d2b        +.      LSRS     r3,r5,#20
        0x10010514:    ea43330c    C..3    ORR      r3,r3,r12,LSL #12
        0x10010518:    185e        ^.      ADDS     r6,r3,r1
        0x1001051a:    eb44501c    D..P    ADC      r0,r4,r12,LSR #20
        0x1001051e:    46da        .F      MOV      r10,r11
        0x10010520:    4651        QF      MOV      r1,r10
        0x10010522:    fbe70102    ....    UMLAL    r0,r1,r7,r2
        0x10010526:    f3c50413    ....    UBFX     r4,r5,#0,#20
        0x1001052a:    ea4f330b    O..3    LSL      r3,r11,#12
        0x1001052e:    ea435314    C..S    ORR      r3,r3,r4,LSR #20
        0x10010532:    ea4f3204    O..2    LSL      r2,r4,#12
        0x10010536:    9c01        ..      LDR      r4,[sp,#4]
        0x10010538:    ea430306    C...    ORR      r3,r3,r6
        0x1001053c:    f1a4040c    ....    SUB      r4,r4,#0xc
        0x10010540:    9402        ..      STR      r4,[sp,#8]
        0x10010542:    9c00        ..      LDR      r4,[sp,#0]
        0x10010544:    e9cdb400    ....    STRD     r11,r4,[sp,#0]
        0x10010548:    f000f8fe    ....    BL       _double_epilogue ; 0x10010748
        0x1001054c:    b003        ..      ADD      sp,sp,#0xc
        0x1001054e:    e8bd8ff0    ....    POP      {r4-r11,pc}
        0x10010552:    2000        .       MOVS     r0,#0
        0x10010554:    4601        .F      MOV      r1,r0
        0x10010556:    e7f9        ..      B        0x1001054c ; __aeabi_dmul + 216
    .text
    __aeabi_ddiv
        0x10010558:    e92d4df0    -..M    PUSH     {r4-r8,r10,r11,lr}
        0x1001055c:    ea810403    ....    EOR      r4,r1,r3
        0x10010560:    f0044b00    ...K    AND      r11,r4,#0x80000000
        0x10010564:    f0214500    !..E    BIC      r5,r1,#0x80000000
        0x10010568:    4614        .F      MOV      r4,r2
        0x1001056a:    f04f0a00    O...    MOV      r10,#0
        0x1001056e:    f0234100    #..A    BIC      r1,r3,#0x80000000
        0x10010572:    ea500205    P...    ORRS     r2,r0,r5
        0x10010576:    d020         .      BEQ      0x100105ba ; __aeabi_ddiv + 98
        0x10010578:    ea540201    T...    ORRS     r2,r4,r1
        0x1001057c:    d01d        ..      BEQ      0x100105ba ; __aeabi_ddiv + 98
        0x1001057e:    f3c5570a    ...W    UBFX     r7,r5,#20,#11
        0x10010582:    4602        .F      MOV      r2,r0
        0x10010584:    f3c50313    ....    UBFX     r3,r5,#0,#20
        0x10010588:    f3c10013    ....    UBFX     r0,r1,#0,#20
        0x1001058c:    f3c1560a    ...V    UBFX     r6,r1,#20,#11
        0x10010590:    f4401580    @...    ORR      r5,r0,#0x100000
        0x10010594:    f4431380    C...    ORR      r3,r3,#0x100000
        0x10010598:    eba70806    ....    SUB      r8,r7,r6
        0x1001059c:    1b10        ..      SUBS     r0,r2,r4
        0x1001059e:    46d6        .F      MOV      lr,r10
        0x100105a0:    f20838fd    ...8    ADD      r8,r8,#0x3fd
        0x100105a4:    eb730005    s...    SBCS     r0,r3,r5
        0x100105a8:    d302        ..      BCC      0x100105b0 ; __aeabi_ddiv + 88
        0x100105aa:    f1080801    ....    ADD      r8,r8,#1
        0x100105ae:    e001        ..      B        0x100105b4 ; __aeabi_ddiv + 92
        0x100105b0:    1892        ..      ADDS     r2,r2,r2
        0x100105b2:    415b        [A      ADCS     r3,r3,r3
        0x100105b4:    f1b80f00    ....    CMP      r8,#0
        0x100105b8:    da03        ..      BGE      0x100105c2 ; __aeabi_ddiv + 106
        0x100105ba:    2000        .       MOVS     r0,#0
        0x100105bc:    4601        .F      MOV      r1,r0
        0x100105be:    e8bd8df0    ....    POP      {r4-r8,r10,r11,pc}
        0x100105c2:    2000        .       MOVS     r0,#0
        0x100105c4:    f44f1180    O...    MOV      r1,#0x100000
        0x100105c8:    4606        .F      MOV      r6,r0
        0x100105ca:    4684        .F      MOV      r12,r0
        0x100105cc:    e00e        ..      B        0x100105ec ; __aeabi_ddiv + 148
        0x100105ce:    1b17        ..      SUBS     r7,r2,r4
        0x100105d0:    eb730705    s...    SBCS     r7,r3,r5
        0x100105d4:    d305        ..      BCC      0x100105e2 ; __aeabi_ddiv + 138
        0x100105d6:    1b12        ..      SUBS     r2,r2,r4
        0x100105d8:    eb630305    c...    SBC      r3,r3,r5
        0x100105dc:    4306        .C      ORRS     r6,r6,r0
        0x100105de:    ea4c0c01    L...    ORR      r12,r12,r1
        0x100105e2:    0849        I.      LSRS     r1,r1,#1
        0x100105e4:    ea4f0030    O.0.    RRX      r0,r0
        0x100105e8:    1892        ..      ADDS     r2,r2,r2
        0x100105ea:    415b        [A      ADCS     r3,r3,r3
        0x100105ec:    ea500701    P...    ORRS     r7,r0,r1
        0x100105f0:    d1ed        ..      BNE      0x100105ce ; __aeabi_ddiv + 118
        0x100105f2:    ea520003    R...    ORRS     r0,r2,r3
        0x100105f6:    d012        ..      BEQ      0x1001061e ; __aeabi_ddiv + 198
        0x100105f8:    ea820004    ....    EOR      r0,r2,r4
        0x100105fc:    ea830105    ....    EOR      r1,r3,r5
        0x10010600:    4308        .C      ORRS     r0,r0,r1
        0x10010602:    d005        ..      BEQ      0x10010610 ; __aeabi_ddiv + 184
        0x10010604:    1b10        ..      SUBS     r0,r2,r4
        0x10010606:    41ab        .A      SBCS     r3,r3,r5
        0x10010608:    d206        ..      BCS      0x10010618 ; __aeabi_ddiv + 192
        0x1001060a:    2201        ."      MOVS     r2,#1
        0x1001060c:    2300        .#      MOVS     r3,#0
        0x1001060e:    e006        ..      B        0x1001061e ; __aeabi_ddiv + 198
        0x10010610:    2200        ."      MOVS     r2,#0
        0x10010612:    f04f4300    O..C    MOV      r3,#0x80000000
        0x10010616:    e002        ..      B        0x1001061e ; __aeabi_ddiv + 198
        0x10010618:    f06f0201    o...    MVN      r2,#1
        0x1001061c:    1053        S.      ASRS     r3,r2,#1
        0x1001061e:    eb1a0006    ....    ADDS     r0,r10,r6
        0x10010622:    eb4c5108    L..Q    ADC      r1,r12,r8,LSL #20
        0x10010626:    eb10000a    ....    ADDS     r0,r0,r10
        0x1001062a:    eb41010b    A...    ADC      r1,r1,r11
        0x1001062e:    e8bd4df0    ...M    POP      {r4-r8,r10,r11,lr}
        0x10010632:    f000b87a    ..z.    B.W      _double_round ; 0x1001072a
    .text
    __aeabi_d2ulz
        0x10010636:    f3c1520a    ...R    UBFX     r2,r1,#20,#11
        0x1001063a:    f3c10113    ....    UBFX     r1,r1,#0,#20
        0x1001063e:    f24033ff    @..3    MOV      r3,#0x3ff
        0x10010642:    f4411180    A...    ORR      r1,r1,#0x100000
        0x10010646:    429a        .B      CMP      r2,r3
        0x10010648:    da02        ..      BGE      0x10010650 ; __aeabi_d2ulz + 26
        0x1001064a:    2000        .       MOVS     r0,#0
        0x1001064c:    4601        .F      MOV      r1,r0
        0x1001064e:    4770        pG      BX       lr
        0x10010650:    f2404333    @.3C    MOV      r3,#0x433
        0x10010654:    429a        .B      CMP      r2,r3
        0x10010656:    f2a24233    ..3B    SUB      r2,r2,#0x433
        0x1001065a:    dc02        ..      BGT      0x10010662 ; __aeabi_d2ulz + 44
        0x1001065c:    4252        RB      RSBS     r2,r2,#0
        0x1001065e:    f000b842    ..B.    B.W      __aeabi_llsr ; 0x100106e6
        0x10010662:    f000b831    ..1.    B.W      __aeabi_llsl ; 0x100106c8
        0x10010666:    0000        ..      MOVS     r0,r0
    .text
    __aeabi_cdrcmple
        0x10010668:    b530        0.      PUSH     {r4,r5,lr}
        0x1001066a:    1e04        ..      SUBS     r4,r0,#0
        0x1001066c:    f1710400    q...    SBCS     r4,r1,#0
        0x10010670:    db04        ..      BLT      0x1001067c ; __aeabi_cdrcmple + 20
        0x10010672:    f04f4400    O..D    MOV      r4,#0x80000000
        0x10010676:    4240        @B      RSBS     r0,r0,#0
        0x10010678:    eb640101    d...    SBC      r1,r4,r1
        0x1001067c:    1e14        ..      SUBS     r4,r2,#0
        0x1001067e:    f1730400    s...    SBCS     r4,r3,#0
        0x10010682:    db05        ..      BLT      0x10010690 ; __aeabi_cdrcmple + 40
        0x10010684:    461c        .F      MOV      r4,r3
        0x10010686:    f04f4300    O..C    MOV      r3,#0x80000000
        0x1001068a:    4252        RB      RSBS     r2,r2,#0
        0x1001068c:    eb630304    c...    SBC      r3,r3,r4
        0x10010690:    4299        .B      CMP      r1,r3
        0x10010692:    bf08        ..      IT       EQ
        0x10010694:    4290        .B      CMPEQ    r0,r2
        0x10010696:    bd30        0.      POP      {r4,r5,pc}
    .text
    __scatterload
    __scatterload_rt2
        0x10010698:    b51c        ..      PUSH     {r2-r4,lr}
        0x1001069a:    4809        .H      LDR      r0,[pc,#36] ; [0x100106c0] = 0x10011620
        0x1001069c:    9000        ..      STR      r0,[sp,#0]
        0x1001069e:    4809        .H      LDR      r0,[pc,#36] ; [0x100106c4] = 0x10011640
        0x100106a0:    9001        ..      STR      r0,[sp,#4]
        0x100106a2:    4605        .F      MOV      r5,r0
        0x100106a4:    9c00        ..      LDR      r4,[sp,#0]
        0x100106a6:    e006        ..      B        0x100106b6 ; __scatterload + 30
        0x100106a8:    68e0        .h      LDR      r0,[r4,#0xc]
        0x100106aa:    f0400301    @...    ORR      r3,r0,#1
        0x100106ae:    e8940007    ....    LDM      r4,{r0-r2}
        0x100106b2:    4798        .G      BLX      r3
        0x100106b4:    3410        .4      ADDS     r4,r4,#0x10
        0x100106b6:    42ac        .B      CMP      r4,r5
        0x100106b8:    d3f6        ..      BCC      0x100106a8 ; __scatterload + 16
        0x100106ba:    f7fffde7    ....    BL       __main_after_scatterload ; 0x1001028c
    $d
        0x100106be:    0000        ..      DCW    0
        0x100106c0:    10011620     ...    DCD    268506656
        0x100106c4:    10011640    @...    DCD    268506688
    $t
    .text
    __aeabi_llsl
    _ll_shift_l
        0x100106c8:    2a20         *      CMP      r2,#0x20
        0x100106ca:    db04        ..      BLT      0x100106d6 ; __aeabi_llsl + 14
        0x100106cc:    3a20         :      SUBS     r2,r2,#0x20
        0x100106ce:    fa00f102    ....    LSL      r1,r0,r2
        0x100106d2:    2000        .       MOVS     r0,#0
        0x100106d4:    4770        pG      BX       lr
        0x100106d6:    4091        .@      LSLS     r1,r1,r2
        0x100106d8:    f1c20320    .. .    RSB      r3,r2,#0x20
        0x100106dc:    fa20f303     ...    LSR      r3,r0,r3
        0x100106e0:    4319        .C      ORRS     r1,r1,r3
        0x100106e2:    4090        .@      LSLS     r0,r0,r2
        0x100106e4:    4770        pG      BX       lr
    .text
    __aeabi_llsr
    _ll_ushift_r
        0x100106e6:    2a20         *      CMP      r2,#0x20
        0x100106e8:    db04        ..      BLT      0x100106f4 ; __aeabi_llsr + 14
        0x100106ea:    3a20         :      SUBS     r2,r2,#0x20
        0x100106ec:    fa21f002    !...    LSR      r0,r1,r2
        0x100106f0:    2100        .!      MOVS     r1,#0
        0x100106f2:    4770        pG      BX       lr
        0x100106f4:    fa21f302    !...    LSR      r3,r1,r2
        0x100106f8:    40d0        .@      LSRS     r0,r0,r2
        0x100106fa:    f1c20220    .. .    RSB      r2,r2,#0x20
        0x100106fe:    4091        .@      LSLS     r1,r1,r2
        0x10010700:    4308        .C      ORRS     r0,r0,r1
        0x10010702:    4619        .F      MOV      r1,r3
        0x10010704:    4770        pG      BX       lr
    .text
    __aeabi_lasr
    _ll_sshift_r
        0x10010706:    2a20         *      CMP      r2,#0x20
        0x10010708:    db06        ..      BLT      0x10010718 ; __aeabi_lasr + 18
        0x1001070a:    17cb        ..      ASRS     r3,r1,#31
        0x1001070c:    3a20         :      SUBS     r2,r2,#0x20
        0x1001070e:    fa41f002    A...    ASR      r0,r1,r2
        0x10010712:    ea4373e0    C..s    ORR      r3,r3,r0,ASR #31
        0x10010716:    e006        ..      B        0x10010726 ; __aeabi_lasr + 32
        0x10010718:    fa41f302    A...    ASR      r3,r1,r2
        0x1001071c:    40d0        .@      LSRS     r0,r0,r2
        0x1001071e:    f1c20220    .. .    RSB      r2,r2,#0x20
        0x10010722:    4091        .@      LSLS     r1,r1,r2
        0x10010724:    4308        .C      ORRS     r0,r0,r1
        0x10010726:    4619        .F      MOV      r1,r3
        0x10010728:    4770        pG      BX       lr
    .text
    _double_round
        0x1001072a:    b510        ..      PUSH     {r4,lr}
        0x1001072c:    1e14        ..      SUBS     r4,r2,#0
        0x1001072e:    f1730400    s...    SBCS     r4,r3,#0
        0x10010732:    da08        ..      BGE      0x10010746 ; _double_round + 28
        0x10010734:    1c40        @.      ADDS     r0,r0,#1
        0x10010736:    f1410100    A...    ADC      r1,r1,#0
        0x1001073a:    1892        ..      ADDS     r2,r2,r2
        0x1001073c:    415b        [A      ADCS     r3,r3,r3
        0x1001073e:    431a        .C      ORRS     r2,r2,r3
        0x10010740:    d101        ..      BNE      0x10010746 ; _double_round + 28
        0x10010742:    f0200001     ...    BIC      r0,r0,#1
        0x10010746:    bd10        ..      POP      {r4,pc}
    _double_epilogue
        0x10010748:    e92d4df0    -..M    PUSH     {r4-r8,r10,r11,lr}
        0x1001074c:    4692        .F      MOV      r10,r2
        0x1001074e:    469b        .F      MOV      r11,r3
        0x10010750:    b111        ..      CBZ      r1,0x10010758 ; _double_epilogue + 16
        0x10010752:    fab1f281    ....    CLZ      r2,r1
        0x10010756:    e002        ..      B        0x1001075e ; _double_epilogue + 22
        0x10010758:    fab0f280    ....    CLZ      r2,r0
        0x1001075c:    3220         2      ADDS     r2,r2,#0x20
        0x1001075e:    4690        .F      MOV      r8,r2
        0x10010760:    f7ffffb2    ....    BL       __aeabi_llsl ; 0x100106c8
        0x10010764:    4604        .F      MOV      r4,r0
        0x10010766:    460f        .F      MOV      r7,r1
        0x10010768:    ea40000a    @...    ORR      r0,r0,r10
        0x1001076c:    ea41010b    A...    ORR      r1,r1,r11
        0x10010770:    4653        SF      MOV      r3,r10
        0x10010772:    465a        ZF      MOV      r2,r11
        0x10010774:    4308        .C      ORRS     r0,r0,r1
        0x10010776:    d013        ..      BEQ      0x100107a0 ; _double_epilogue + 88
        0x10010778:    4611        .F      MOV      r1,r2
        0x1001077a:    ea530001    S...    ORRS     r0,r3,r1
        0x1001077e:    d019        ..      BEQ      0x100107b4 ; _double_epilogue + 108
        0x10010780:    f1c80240    ..@.    RSB      r2,r8,#0x40
        0x10010784:    4650        PF      MOV      r0,r10
        0x10010786:    f7ffffae    ....    BL       __aeabi_llsr ; 0x100106e6
        0x1001078a:    4605        .F      MOV      r5,r0
        0x1001078c:    460e        .F      MOV      r6,r1
        0x1001078e:    4650        PF      MOV      r0,r10
        0x10010790:    4659        YF      MOV      r1,r11
        0x10010792:    4642        BF      MOV      r2,r8
        0x10010794:    f7ffff98    ....    BL       __aeabi_llsl ; 0x100106c8
        0x10010798:    4308        .C      ORRS     r0,r0,r1
        0x1001079a:    d005        ..      BEQ      0x100107a8 ; _double_epilogue + 96
        0x1001079c:    2001        .       MOVS     r0,#1
        0x1001079e:    e004        ..      B        0x100107aa ; _double_epilogue + 98
        0x100107a0:    4620         F      MOV      r0,r4
        0x100107a2:    4639        9F      MOV      r1,r7
        0x100107a4:    e8bd8df0    ....    POP      {r4-r8,r10,r11,pc}
        0x100107a8:    2000        .       MOVS     r0,#0
        0x100107aa:    4305        .C      ORRS     r5,r5,r0
        0x100107ac:    ea4676e0    F..v    ORR      r6,r6,r0,ASR #31
        0x100107b0:    432c        ,C      ORRS     r4,r4,r5
        0x100107b2:    4337        7C      ORRS     r7,r7,r6
        0x100107b4:    980a        ..      LDR      r0,[sp,#0x28]
        0x100107b6:    0563        c.      LSLS     r3,r4,#21
        0x100107b8:    0ae4        ..      LSRS     r4,r4,#11
        0x100107ba:    eba00008    ....    SUB      r0,r0,r8
        0x100107be:    2200        ."      MOVS     r2,#0
        0x100107c0:    0afd        ..      LSRS     r5,r7,#11
        0x100107c2:    ea445447    D.GT    ORR      r4,r4,r7,LSL #21
        0x100107c6:    300a        .0      ADDS     r0,r0,#0xa
        0x100107c8:    d502        ..      BPL      0x100107d0 ; _double_epilogue + 136
        0x100107ca:    2000        .       MOVS     r0,#0
        0x100107cc:    4601        .F      MOV      r1,r0
        0x100107ce:    e7e9        ..      B        0x100107a4 ; _double_epilogue + 92
        0x100107d0:    0501        ..      LSLS     r1,r0,#20
        0x100107d2:    1910        ..      ADDS     r0,r2,r4
        0x100107d4:    4169        iA      ADCS     r1,r1,r5
        0x100107d6:    e9dd4508    ...E    LDRD     r4,r5,[sp,#0x20]
        0x100107da:    1900        ..      ADDS     r0,r0,r4
        0x100107dc:    4169        iA      ADCS     r1,r1,r5
        0x100107de:    e8bd4df0    ...M    POP      {r4-r8,r10,r11,lr}
        0x100107e2:    e7a2        ..      B        _double_round ; 0x1001072a
    DEBUG_PORT_Init
        0x100107e4:    f2410124    A.$.    MOV      r1,#0x1024
        0x100107e8:    f2c50107    ....    MOVT     r1,#0x5007
        0x100107ec:    f240109f    @...    MOV      r0,#0x19f
        0x100107f0:    f2c30000    ....    MOVT     r0,#0x3000
        0x100107f4:    6008        .`      STR      r0,[r1,#0]
        0x100107f6:    f241010c    A...    MOV      r1,#0x100c
        0x100107fa:    f2c50107    ....    MOVT     r1,#0x5007
        0x100107fe:    2003        .       MOVS     r0,#3
        0x10010800:    6008        .`      STR      r0,[r1,#0]
        0x10010802:    4770        pG      BX       lr
    ACMP01_IRQHandler
    BOD_IRQHandler
    BPWM0_IRQHandler
    BPWM1_IRQHandler
    BPWM2_IRQHandler
    BPWM3_IRQHandler
    BPWM4_IRQHandler
    BPWM5_IRQHandler
    BRAKE0_IRQHandler
    BRAKE1_IRQHandler
    BusFault_Handler
    CANFD00_IRQHandler
    CANFD01_IRQHandler
    CANFD10_IRQHandler
    CANFD11_IRQHandler
    CKFAIL_IRQHandler
    CRC_IRQHandler
    DebugMon_Handler
    Default_Handler
    EADC00_IRQHandler
    EADC01_IRQHandler
    EADC02_IRQHandler
    EADC03_IRQHandler
    ECAP0_IRQHandler
    EHCI_IRQHandler
    EINT0_IRQHandler
    EINT1_IRQHandler
    EINT2_IRQHandler
    EINT3_IRQHandler
    EINT4_IRQHandler
    EINT5_IRQHandler
    EINT6_IRQHandler
    EINT7_IRQHandler
    ELLSI0_IRQHandler
    EPWM0P0_IRQHandler
    EPWM0P1_IRQHandler
    EPWM0P2_IRQHandler
    EPWM1P0_IRQHandler
    EPWM1P1_IRQHandler
    EPWM1P2_IRQHandler
    EQEI0_IRQHandler
    ETI_IRQHandler
    GPA_IRQHandler
    GPB_IRQHandler
    GPC_IRQHandler
    GPD_IRQHandler
    GPE_IRQHandler
    GPF_IRQHandler
    GPG_IRQHandler
    GPH_IRQHandler
    I2C0_IRQHandler
    I2C1_IRQHandler
    I2C2_IRQHandler
    I2S0_IRQHandler
    I3C0_IRQHandler
    IRC_IRQHandler
    ISP_IRQHandler
    LLSI0_IRQHandler
    LLSI1_IRQHandler
    LLSI2_IRQHandler
    LLSI3_IRQHandler
    LLSI4_IRQHandler
    LLSI5_IRQHandler
    LLSI6_IRQHandler
    LLSI7_IRQHandler
    LLSI8_IRQHandler
    LLSI9_IRQHandler
    MemManage_Handler
    NMI_Handler
    NS_ISP_IRQHandler
    NS_RAMPE_IRQHandler
    OHCI_IRQHandler
    PDCI_IRQHandler
    PDMA0_IRQHandler
    PDMA1_IRQHandler
    PWRWU_IRQHandler
    PendSV_Handler
    QSPI0_IRQHandler
    RAMPE_IRQHandler
    RTC_IRQHandler
    SDH0_IRQHandler
    SPI0_IRQHandler
    SPI1_IRQHandler
    SPI2_IRQHandler
    SVC_Handler
    SecureFault_Handler
    TMR0_IRQHandler
    TMR1_IRQHandler
    TMR2_IRQHandler
    TMR3_IRQHandler
    UART0_IRQHandler
    UART1_IRQHandler
    UART2_IRQHandler
    UART3_IRQHandler
    UART4_IRQHandler
    USBD20_IRQHandler
    USBOTG20_IRQHandler
    USCI0_IRQHandler
    USCI1_IRQHandler
    UsageFault_Handler
    WDT0_IRQHandler
    WDT1_IRQHandler
    WWDT0_IRQHandler
    WWDT1_IRQHandler
        0x10010804:    e7ff        ..      B        0x10010806 ; ACMP01_IRQHandler + 2
        0x10010806:    e7fe        ..      B        0x10010806 ; ACMP01_IRQHandler + 2
    GPIO_SetMode
        0x10010808:    b084        ..      SUB      sp,sp,#0x10
        0x1001080a:    9003        ..      STR      r0,[sp,#0xc]
        0x1001080c:    9102        ..      STR      r1,[sp,#8]
        0x1001080e:    9201        ..      STR      r2,[sp,#4]
        0x10010810:    2000        .       MOVS     r0,#0
        0x10010812:    9000        ..      STR      r0,[sp,#0]
        0x10010814:    e7ff        ..      B        0x10010816 ; GPIO_SetMode + 14
        0x10010816:    9800        ..      LDR      r0,[sp,#0]
        0x10010818:    280f        .(      CMP      r0,#0xf
        0x1001081a:    d818        ..      BHI      0x1001084e ; GPIO_SetMode + 70
        0x1001081c:    e7ff        ..      B        0x1001081e ; GPIO_SetMode + 22
        0x1001081e:    9802        ..      LDR      r0,[sp,#8]
        0x10010820:    9900        ..      LDR      r1,[sp,#0]
        0x10010822:    40c8        .@      LSRS     r0,r0,r1
        0x10010824:    07c0        ..      LSLS     r0,r0,#31
        0x10010826:    b168        h.      CBZ      r0,0x10010844 ; GPIO_SetMode + 60
        0x10010828:    e7ff        ..      B        0x1001082a ; GPIO_SetMode + 34
        0x1001082a:    9803        ..      LDR      r0,[sp,#0xc]
        0x1001082c:    6800        .h      LDR      r0,[r0,#0]
        0x1001082e:    9900        ..      LDR      r1,[sp,#0]
        0x10010830:    004a        J.      LSLS     r2,r1,#1
        0x10010832:    2103        .!      MOVS     r1,#3
        0x10010834:    4091        .@      LSLS     r1,r1,r2
        0x10010836:    4388        .C      BICS     r0,r0,r1
        0x10010838:    9901        ..      LDR      r1,[sp,#4]
        0x1001083a:    4091        .@      LSLS     r1,r1,r2
        0x1001083c:    4308        .C      ORRS     r0,r0,r1
        0x1001083e:    9903        ..      LDR      r1,[sp,#0xc]
        0x10010840:    6008        .`      STR      r0,[r1,#0]
        0x10010842:    e7ff        ..      B        0x10010844 ; GPIO_SetMode + 60
        0x10010844:    e7ff        ..      B        0x10010846 ; GPIO_SetMode + 62
        0x10010846:    9800        ..      LDR      r0,[sp,#0]
        0x10010848:    3001        .0      ADDS     r0,#1
        0x1001084a:    9000        ..      STR      r0,[sp,#0]
        0x1001084c:    e7e3        ..      B        0x10010816 ; GPIO_SetMode + 14
        0x1001084e:    b004        ..      ADD      sp,sp,#0x10
        0x10010850:    4770        pG      BX       lr
        0x10010852:    0000        ..      MOVS     r0,r0
    HardFault_Handler
        0x10010854:    e7ff        ..      B        0x10010856 ; HardFault_Handler + 2
        0x10010856:    e7fe        ..      B        0x10010856 ; HardFault_Handler + 2
    LED_Off
        0x10010858:    b580        ..      PUSH     {r7,lr}
        0x1001085a:    b082        ..      SUB      sp,sp,#8
        0x1001085c:    9001        ..      STR      r0,[sp,#4]
        0x1001085e:    f24150ca    A..P    MOV      r0,#0x15ca
        0x10010862:    f2c10001    ....    MOVT     r0,#0x1001
        0x10010866:    f000f9df    ....    BL       __0printf ; 0x10010c28
        0x1001086a:    f64401b8    D...    MOV      r1,#0x48b8
        0x1001086e:    f2c40100    ....    MOVT     r1,#0x4000
        0x10010872:    2001        .       MOVS     r0,#1
        0x10010874:    6008        .`      STR      r0,[r1,#0]
        0x10010876:    b002        ..      ADD      sp,sp,#8
        0x10010878:    bd80        ..      POP      {r7,pc}
        0x1001087a:    0000        ..      MOVS     r0,r0
    LED_On
        0x1001087c:    b580        ..      PUSH     {r7,lr}
        0x1001087e:    b082        ..      SUB      sp,sp,#8
        0x10010880:    9001        ..      STR      r0,[sp,#4]
        0x10010882:    f24150dd    A..P    MOV      r0,#0x15dd
        0x10010886:    f2c10001    ....    MOVT     r0,#0x1001
        0x1001088a:    f000f9cd    ....    BL       __0printf ; 0x10010c28
        0x1001088e:    f64401b8    D...    MOV      r1,#0x48b8
        0x10010892:    f2c40100    ....    MOVT     r1,#0x4000
        0x10010896:    2000        .       MOVS     r0,#0
        0x10010898:    6008        .`      STR      r0,[r1,#0]
        0x1001089a:    b002        ..      ADD      sp,sp,#8
        0x1001089c:    bd80        ..      POP      {r7,pc}
        0x1001089e:    0000        ..      MOVS     r0,r0
    NonSecure_LED_Off
        0x100108a0:    b580        ..      PUSH     {r7,lr}
        0x100108a2:    b082        ..      SUB      sp,sp,#8
        0x100108a4:    9001        ..      STR      r0,[sp,#4]
        0x100108a6:    f2415087    A..P    MOV      r0,#0x1587
        0x100108aa:    f2c10001    ....    MOVT     r0,#0x1001
        0x100108ae:    f000f9bb    ....    BL       __0printf ; 0x10010c28
        0x100108b2:    f64401b8    D...    MOV      r1,#0x48b8
        0x100108b6:    f2c40100    ....    MOVT     r1,#0x4000
        0x100108ba:    2001        .       MOVS     r0,#1
        0x100108bc:    6008        .`      STR      r0,[r1,#0]
        0x100108be:    2000        .       MOVS     r0,#0
        0x100108c0:    b002        ..      ADD      sp,sp,#8
        0x100108c2:    bd80        ..      POP      {r7,pc}
    NonSecure_LED_On
        0x100108c4:    b580        ..      PUSH     {r7,lr}
        0x100108c6:    b082        ..      SUB      sp,sp,#8
        0x100108c8:    9001        ..      STR      r0,[sp,#4]
        0x100108ca:    f24150a9    A..P    MOV      r0,#0x15a9
        0x100108ce:    f2c10001    ....    MOVT     r0,#0x1001
        0x100108d2:    f000f9a9    ....    BL       __0printf ; 0x10010c28
        0x100108d6:    f64401b8    D...    MOV      r1,#0x48b8
        0x100108da:    f2c40100    ....    MOVT     r1,#0x4000
        0x100108de:    2000        .       MOVS     r0,#0
        0x100108e0:    6008        .`      STR      r0,[r1,#0]
        0x100108e2:    b002        ..      ADD      sp,sp,#8
        0x100108e4:    bd80        ..      POP      {r7,pc}
        0x100108e6:    0000        ..      MOVS     r0,r0
    Reset_Handler
        0x100108e8:    b084        ..      SUB      sp,sp,#0x10
        0x100108ea:    f2482000    H..     MOVW     r0,#0x8200
        0x100108ee:    f2c30000    ....    MOVT     r0,#0x3000
        0x100108f2:    9001        ..      STR      r0,[sp,#4]
        0x100108f4:    9801        ..      LDR      r0,[sp,#4]
        0x100108f6:    f3808809    ....    MSR      PSP,r0
        0x100108fa:    f2480000    H...    MOVW     r0,#0x8000
        0x100108fe:    f2c30000    ....    MOVT     r0,#0x3000
        0x10010902:    9002        ..      STR      r0,[sp,#8]
        0x10010904:    9902        ..      LDR      r1,[sp,#8]
        0x10010906:    f381880a    ....    MSR      MSPLIM,r1
        0x1001090a:    9003        ..      STR      r0,[sp,#0xc]
        0x1001090c:    9803        ..      LDR      r0,[sp,#0xc]
        0x1001090e:    f380880b    ....    MSR      PSPLIM,r0
        0x10010912:    f000f8c5    ....    BL       SystemInit ; 0x10010aa0
        0x10010916:    f7fffcb5    ....    BL       __main ; 0x10010284
        0x1001091a:    0000        ..      MOVS     r0,r0
    SCU_IRQHandler
        0x1001091c:    e7ff        ..      B        0x1001091e ; SCU_IRQHandler + 2
        0x1001091e:    e7fe        ..      B        0x1001091e ; SCU_IRQHandler + 2
    SendChar
        0x10010920:    b580        ..      PUSH     {r7,lr}
        0x10010922:    b082        ..      SUB      sp,sp,#8
        0x10010924:    9001        ..      STR      r0,[sp,#4]
        0x10010926:    9801        ..      LDR      r0,[sp,#4]
        0x10010928:    f000f802    ....    BL       SendChar_ToUART ; 0x10010930
        0x1001092c:    b002        ..      ADD      sp,sp,#8
        0x1001092e:    bd80        ..      POP      {r7,pc}
    SendChar_ToUART
        0x10010930:    b081        ..      SUB      sp,sp,#4
        0x10010932:    9000        ..      STR      r0,[sp,#0]
        0x10010934:    f89d0000    ....    LDRB     r0,[sp,#0]
        0x10010938:    280a        .(      CMP      r0,#0xa
        0x1001093a:    d112        ..      BNE      0x10010962 ; SendChar_ToUART + 50
        0x1001093c:    e7ff        ..      B        0x1001093e ; SendChar_ToUART + 14
        0x1001093e:    e7ff        ..      B        0x10010940 ; SendChar_ToUART + 16
        0x10010940:    f2410018    A...    MOV      r0,#0x1018
        0x10010944:    f2c50007    ....    MOVT     r0,#0x5007
        0x10010948:    6800        .h      LDR      r0,[r0,#0]
        0x1001094a:    0200        ..      LSLS     r0,r0,#8
        0x1001094c:    2800        .(      CMP      r0,#0
        0x1001094e:    d501        ..      BPL      0x10010954 ; SendChar_ToUART + 36
        0x10010950:    e7ff        ..      B        0x10010952 ; SendChar_ToUART + 34
        0x10010952:    e7f5        ..      B        0x10010940 ; SendChar_ToUART + 16
        0x10010954:    f2410100    A...    MOVW     r1,#0x1000
        0x10010958:    f2c50107    ....    MOVT     r1,#0x5007
        0x1001095c:    200d        .       MOVS     r0,#0xd
        0x1001095e:    6008        .`      STR      r0,[r1,#0]
        0x10010960:    e7ff        ..      B        0x10010962 ; SendChar_ToUART + 50
        0x10010962:    e7ff        ..      B        0x10010964 ; SendChar_ToUART + 52
        0x10010964:    f2410018    A...    MOV      r0,#0x1018
        0x10010968:    f2c50007    ....    MOVT     r0,#0x5007
        0x1001096c:    6800        .h      LDR      r0,[r0,#0]
        0x1001096e:    0200        ..      LSLS     r0,r0,#8
        0x10010970:    2800        .(      CMP      r0,#0
        0x10010972:    d501        ..      BPL      0x10010978 ; SendChar_ToUART + 72
        0x10010974:    e7ff        ..      B        0x10010976 ; SendChar_ToUART + 70
        0x10010976:    e7f5        ..      B        0x10010964 ; SendChar_ToUART + 52
        0x10010978:    9800        ..      LDR      r0,[sp,#0]
        0x1001097a:    f2410100    A...    MOVW     r1,#0x1000
        0x1001097e:    f2c50107    ....    MOVT     r1,#0x5007
        0x10010982:    6008        .`      STR      r0,[r1,#0]
        0x10010984:    b001        ..      ADD      sp,sp,#4
        0x10010986:    4770        pG      BX       lr
    SysTick_Config
        0x10010988:    b580        ..      PUSH     {r7,lr}
        0x1001098a:    b084        ..      SUB      sp,sp,#0x10
        0x1001098c:    9002        ..      STR      r0,[sp,#8]
        0x1001098e:    9802        ..      LDR      r0,[sp,#8]
        0x10010990:    3801        .8      SUBS     r0,#1
        0x10010992:    f1b07f80    ....    CMP      r0,#0x1000000
        0x10010996:    d303        ..      BCC      0x100109a0 ; SysTick_Config + 24
        0x10010998:    e7ff        ..      B        0x1001099a ; SysTick_Config + 18
        0x1001099a:    2001        .       MOVS     r0,#1
        0x1001099c:    9003        ..      STR      r0,[sp,#0xc]
        0x1001099e:    e01a        ..      B        0x100109d6 ; SysTick_Config + 78
        0x100109a0:    9802        ..      LDR      r0,[sp,#8]
        0x100109a2:    3801        .8      SUBS     r0,#1
        0x100109a4:    f24e0114    N...    MOV      r1,#0xe014
        0x100109a8:    f2ce0100    ....    MOVT     r1,#0xe000
        0x100109ac:    6008        .`      STR      r0,[r1,#0]
        0x100109ae:    f04f30ff    O..0    MOV      r0,#0xffffffff
        0x100109b2:    2107        .!      MOVS     r1,#7
        0x100109b4:    9101        ..      STR      r1,[sp,#4]
        0x100109b6:    f000f8a1    ....    BL       __NVIC_SetPriority ; 0x10010afc
        0x100109ba:    9901        ..      LDR      r1,[sp,#4]
        0x100109bc:    f24e0218    N...    MOV      r2,#0xe018
        0x100109c0:    f2ce0200    ....    MOVT     r2,#0xe000
        0x100109c4:    2000        .       MOVS     r0,#0
        0x100109c6:    6010        .`      STR      r0,[r2,#0]
        0x100109c8:    f24e0210    N...    MOV      r2,#0xe010
        0x100109cc:    f2ce0200    ....    MOVT     r2,#0xe000
        0x100109d0:    6011        .`      STR      r1,[r2,#0]
        0x100109d2:    9003        ..      STR      r0,[sp,#0xc]
        0x100109d4:    e7ff        ..      B        0x100109d6 ; SysTick_Config + 78
        0x100109d6:    9803        ..      LDR      r0,[sp,#0xc]
        0x100109d8:    b004        ..      ADD      sp,sp,#0x10
        0x100109da:    bd80        ..      POP      {r7,pc}
    SysTick_Handler
        0x100109dc:    b580        ..      PUSH     {r7,lr}
        0x100109de:    b082        ..      SUB      sp,sp,#8
        0x100109e0:    f248220c    H.."    MOV      r2,#0x820c
        0x100109e4:    f2c30200    ....    MOVT     r2,#0x3000
        0x100109e8:    6810        .h      LDR      r0,[r2,#0]
        0x100109ea:    9001        ..      STR      r0,[sp,#4]
        0x100109ec:    1c41        A.      ADDS     r1,r0,#1
        0x100109ee:    6011        .`      STR      r1,[r2,#0]
        0x100109f0:    b170        p.      CBZ      r0,0x10010a10 ; SysTick_Handler + 52
        0x100109f2:    e7ff        ..      B        0x100109f4 ; SysTick_Handler + 24
        0x100109f4:    9801        ..      LDR      r0,[sp,#4]
        0x100109f6:    28c8        .(      CMP      r0,#0xc8
        0x100109f8:    d00e        ..      BEQ      0x10010a18 ; SysTick_Handler + 60
        0x100109fa:    e7ff        ..      B        0x100109fc ; SysTick_Handler + 32
        0x100109fc:    9801        ..      LDR      r0,[sp,#4]
        0x100109fe:    f5b07f96    ....    CMP      r0,#0x12c
        0x10010a02:    d00d        ..      BEQ      0x10010a20 ; SysTick_Handler + 68
        0x10010a04:    e7ff        ..      B        0x10010a06 ; SysTick_Handler + 42
        0x10010a06:    9801        ..      LDR      r0,[sp,#4]
        0x10010a08:    f5b07ffa    ....    CMP      r0,#0x1f4
        0x10010a0c:    d00c        ..      BEQ      0x10010a28 ; SysTick_Handler + 76
        0x10010a0e:    e00f        ..      B        0x10010a30 ; SysTick_Handler + 84
        0x10010a10:    2007        .       MOVS     r0,#7
        0x10010a12:    f7ffff33    ..3.    BL       LED_On ; 0x1001087c
        0x10010a16:    e01c        ..      B        0x10010a52 ; SysTick_Handler + 118
        0x10010a18:    2006        .       MOVS     r0,#6
        0x10010a1a:    f000f8e2    ....    BL       $Ven$TT$L$$Secure_LED_On ; 0x10010be2
        0x10010a1e:    e018        ..      B        0x10010a52 ; SysTick_Handler + 118
        0x10010a20:    2007        .       MOVS     r0,#7
        0x10010a22:    f7ffff19    ....    BL       LED_Off ; 0x10010858
        0x10010a26:    e014        ..      B        0x10010a52 ; SysTick_Handler + 118
        0x10010a28:    2006        .       MOVS     r0,#6
        0x10010a2a:    f000f8df    ....    BL       $Ven$TT$L$$Secure_LED_Off ; 0x10010bec
        0x10010a2e:    e010        ..      B        0x10010a52 ; SysTick_Handler + 118
        0x10010a30:    f248200c    H..     MOV      r0,#0x820c
        0x10010a34:    f2c30000    ....    MOVT     r0,#0x3000
        0x10010a38:    6800        .h      LDR      r0,[r0,#0]
        0x10010a3a:    f5b07f16    ....    CMP      r0,#0x258
        0x10010a3e:    d907        ..      BLS      0x10010a50 ; SysTick_Handler + 116
        0x10010a40:    e7ff        ..      B        0x10010a42 ; SysTick_Handler + 102
        0x10010a42:    f248210c    H..!    MOV      r1,#0x820c
        0x10010a46:    f2c30100    ....    MOVT     r1,#0x3000
        0x10010a4a:    2000        .       MOVS     r0,#0
        0x10010a4c:    6008        .`      STR      r0,[r1,#0]
        0x10010a4e:    e7ff        ..      B        0x10010a50 ; SysTick_Handler + 116
        0x10010a50:    e7ff        ..      B        0x10010a52 ; SysTick_Handler + 118
        0x10010a52:    b002        ..      ADD      sp,sp,#8
        0x10010a54:    bd80        ..      POP      {r7,pc}
        0x10010a56:    0000        ..      MOVS     r0,r0
    SystemCoreClockUpdate
        0x10010a58:    b580        ..      PUSH     {r7,lr}
        0x10010a5a:    f000f8cc    ....    BL       $Ven$TT$L$$CLK_GetPLLClockFreq ; 0x10010bf6
        0x10010a5e:    f2482104    H..!    MOV      r1,#0x8204
        0x10010a62:    f2c30100    ....    MOVT     r1,#0x3000
        0x10010a66:    6008        .`      STR      r0,[r1,#0]
        0x10010a68:    f000f8ca    ....    BL       $Ven$TT$L$$CLK_GetCPUFreq ; 0x10010c00
        0x10010a6c:    4601        .F      MOV      r1,r0
        0x10010a6e:    f2482008    H..     MOV      r0,#0x8208
        0x10010a72:    f2c30000    ....    MOVT     r0,#0x3000
        0x10010a76:    6001        .`      STR      r1,[r0,#0]
        0x10010a78:    6800        .h      LDR      r0,[r0,#0]
        0x10010a7a:    f24a1120    J. .    MOV      r1,#0xa120
        0x10010a7e:    f2c00107    ....    MOVT     r1,#7
        0x10010a82:    4408        .D      ADD      r0,r0,r1
        0x10010a84:    f64d6183    M..a    MOV      r1,#0xde83
        0x10010a88:    f2c4311b    ...1    MOVT     r1,#0x431b
        0x10010a8c:    fba01001    ....    UMULL    r1,r0,r0,r1
        0x10010a90:    0c80        ..      LSRS     r0,r0,#18
        0x10010a92:    f2482100    H..!    MOVW     r1,#0x8200
        0x10010a96:    f2c30100    ....    MOVT     r1,#0x3000
        0x10010a9a:    6008        .`      STR      r0,[r1,#0]
        0x10010a9c:    bd80        ..      POP      {r7,pc}
        0x10010a9e:    0000        ..      MOVS     r0,r0
    SystemInit
        0x10010aa0:    b580        ..      PUSH     {r7,lr}
        0x10010aa2:    f000f849    ..I.    BL       __PC ; 0x10010b38
        0x10010aa6:    00c0        ..      LSLS     r0,r0,#3
        0x10010aa8:    2800        .(      CMP      r0,#0
        0x10010aaa:    d415        ..      BMI      0x10010ad8 ; SystemInit + 56
        0x10010aac:    e7ff        ..      B        0x10010aae ; SystemInit + 14
        0x10010aae:    e7ff        ..      B        0x10010ab0 ; SystemInit + 16
        0x10010ab0:    f2401100    @...    MOVW     r1,#0x100
        0x10010ab4:    f2c50100    ....    MOVT     r1,#0x5000
        0x10010ab8:    2059        Y       MOVS     r0,#0x59
        0x10010aba:    6008        .`      STR      r0,[r1,#0]
        0x10010abc:    2016        .       MOVS     r0,#0x16
        0x10010abe:    6008        .`      STR      r0,[r1,#0]
        0x10010ac0:    2088        .       MOVS     r0,#0x88
        0x10010ac2:    6008        .`      STR      r0,[r1,#0]
        0x10010ac4:    e7ff        ..      B        0x10010ac6 ; SystemInit + 38
        0x10010ac6:    f2401000    @...    MOVW     r0,#0x100
        0x10010aca:    f2c50000    ....    MOVT     r0,#0x5000
        0x10010ace:    6800        .h      LDR      r0,[r0,#0]
        0x10010ad0:    2800        .(      CMP      r0,#0
        0x10010ad2:    d0ed        ..      BEQ      0x10010ab0 ; SystemInit + 16
        0x10010ad4:    e7ff        ..      B        0x10010ad6 ; SystemInit + 54
        0x10010ad6:    e7ff        ..      B        0x10010ad8 ; SystemInit + 56
        0x10010ad8:    f2400000    @...    MOVW     r0,#0
        0x10010adc:    f2c10001    ....    MOVT     r0,#0x1001
        0x10010ae0:    f64e5108    N..Q    MOV      r1,#0xed08
        0x10010ae4:    f2ce0100    ....    MOVT     r1,#0xe000
        0x10010ae8:    6008        .`      STR      r0,[r1,#0]
        0x10010aea:    f64e5188    N..Q    MOV      r1,#0xed88
        0x10010aee:    f2ce0100    ....    MOVT     r1,#0xe000
        0x10010af2:    6808        .h      LDR      r0,[r1,#0]
        0x10010af4:    f4400070    @.p.    ORR      r0,r0,#0xf00000
        0x10010af8:    6008        .`      STR      r0,[r1,#0]
        0x10010afa:    bd80        ..      POP      {r7,pc}
    __NVIC_SetPriority
        0x10010afc:    b082        ..      SUB      sp,sp,#8
        0x10010afe:    9001        ..      STR      r0,[sp,#4]
        0x10010b00:    9100        ..      STR      r1,[sp,#0]
        0x10010b02:    9801        ..      LDR      r0,[sp,#4]
        0x10010b04:    2800        .(      CMP      r0,#0
        0x10010b06:    d409        ..      BMI      0x10010b1c ; __NVIC_SetPriority + 32
        0x10010b08:    e7ff        ..      B        0x10010b0a ; __NVIC_SetPriority + 14
        0x10010b0a:    9800        ..      LDR      r0,[sp,#0]
        0x10010b0c:    0140        @.      LSLS     r0,r0,#5
        0x10010b0e:    9901        ..      LDR      r1,[sp,#4]
        0x10010b10:    f24e4200    N..B    MOVW     r2,#0xe400
        0x10010b14:    f2ce0200    ....    MOVT     r2,#0xe000
        0x10010b18:    5488        .T      STRB     r0,[r1,r2]
        0x10010b1a:    e00a        ..      B        0x10010b32 ; __NVIC_SetPriority + 54
        0x10010b1c:    9800        ..      LDR      r0,[sp,#0]
        0x10010b1e:    0140        @.      LSLS     r0,r0,#5
        0x10010b20:    9901        ..      LDR      r1,[sp,#4]
        0x10010b22:    f001010f    ....    AND      r1,r1,#0xf
        0x10010b26:    f64e5214    N..R    MOV      r2,#0xed14
        0x10010b2a:    f2ce0200    ....    MOVT     r2,#0xe000
        0x10010b2e:    5488        .T      STRB     r0,[r1,r2]
        0x10010b30:    e7ff        ..      B        0x10010b32 ; __NVIC_SetPriority + 54
        0x10010b32:    b002        ..      ADD      sp,sp,#8
        0x10010b34:    4770        pG      BX       lr
        0x10010b36:    0000        ..      MOVS     r0,r0
    __PC
        0x10010b38:    b081        ..      SUB      sp,sp,#4
        0x10010b3a:    4678        xF      MOV      r0,pc
        0x10010b3c:    9000        ..      STR      r0,[sp,#0]
        0x10010b3e:    9800        ..      LDR      r0,[sp,#0]
        0x10010b40:    b001        ..      ADD      sp,sp,#4
        0x10010b42:    4770        pG      BX       lr
    fputc
        0x10010b44:    b580        ..      PUSH     {r7,lr}
        0x10010b46:    b082        ..      SUB      sp,sp,#8
        0x10010b48:    9001        ..      STR      r0,[sp,#4]
        0x10010b4a:    9100        ..      STR      r1,[sp,#0]
        0x10010b4c:    9801        ..      LDR      r0,[sp,#4]
        0x10010b4e:    f7fffee7    ....    BL       SendChar ; 0x10010920
        0x10010b52:    9801        ..      LDR      r0,[sp,#4]
        0x10010b54:    b002        ..      ADD      sp,sp,#8
        0x10010b56:    bd80        ..      POP      {r7,pc}
    main
        0x10010b58:    b580        ..      PUSH     {r7,lr}
        0x10010b5a:    b082        ..      SUB      sp,sp,#8
        0x10010b5c:    2000        .       MOVS     r0,#0
        0x10010b5e:    9001        ..      STR      r0,[sp,#4]
        0x10010b60:    f7fffe40    ..@.    BL       DEBUG_PORT_Init ; 0x100107e4
        0x10010b64:    f241601e    A..`    MOV      r0,#0x161e
        0x10010b68:    f2c10001    ....    MOVT     r0,#0x1001
        0x10010b6c:    f000f85c    ..\.    BL       __0printf ; 0x10010c28
        0x10010b70:    f2415039    A.9P    MOV      r0,#0x1539
        0x10010b74:    f2c10001    ....    MOVT     r0,#0x1001
        0x10010b78:    9000        ..      STR      r0,[sp,#0]
        0x10010b7a:    f000f855    ..U.    BL       __0printf ; 0x10010c28
        0x10010b7e:    f24150ef    A..P    MOV      r0,#0x15ef
        0x10010b82:    f2c10001    ....    MOVT     r0,#0x1001
        0x10010b86:    f000f84f    ..O.    BL       __0printf ; 0x10010c28
        0x10010b8a:    9800        ..      LDR      r0,[sp,#0]
        0x10010b8c:    f000f84c    ..L.    BL       __0printf ; 0x10010c28
        0x10010b90:    f000f83b    ..;.    BL       $Ven$TT$L$$Secure_func ; 0x10010c0a
        0x10010b94:    f2440080    D...    MOVW     r0,#0x4080
        0x10010b98:    f2c50000    ....    MOVT     r0,#0x5000
        0x10010b9c:    f44f4180    O..A    MOV      r1,#0x4000
        0x10010ba0:    2201        ."      MOVS     r2,#1
        0x10010ba2:    f7fffe31    ..1.    BL       GPIO_SetMode ; 0x10010808
        0x10010ba6:    f64000c5    @...    MOV      r0,#0x8c5
        0x10010baa:    f2c10001    ....    MOVT     r0,#0x1001
        0x10010bae:    f000f831    ..1.    BL       $Ven$TT$L$$Secure_LED_On_callback ; 0x10010c14
        0x10010bb2:    f64000a1    @...    MOV      r0,#0x8a1
        0x10010bb6:    f2c10001    ....    MOVT     r0,#0x1001
        0x10010bba:    f000f830    ..0.    BL       $Ven$TT$L$$Secure_LED_Off_callback ; 0x10010c1e
        0x10010bbe:    f7ffff4b    ..K.    BL       SystemCoreClockUpdate ; 0x10010a58
        0x10010bc2:    f2482008    H..     MOV      r0,#0x8208
        0x10010bc6:    f2c30000    ....    MOVT     r0,#0x3000
        0x10010bca:    6800        .h      LDR      r0,[r0,#0]
        0x10010bcc:    f64451d3    D..Q    MOV      r1,#0x4dd3
        0x10010bd0:    f2c10162    ..b.    MOVT     r1,#0x1062
        0x10010bd4:    fba01001    ....    UMULL    r1,r0,r0,r1
        0x10010bd8:    0980        ..      LSRS     r0,r0,#6
        0x10010bda:    f7fffed5    ....    BL       SysTick_Config ; 0x10010988
        0x10010bde:    e7ff        ..      B        0x10010be0 ; main + 136
        0x10010be0:    e7fe        ..      B        0x10010be0 ; main + 136
    $Ven$TT$L$$Secure_LED_On
        0x10010be2:    f2431ca9    C...    MOV      r12,#0x31a9
        0x10010be6:    f2c00c00    ....    MOVT     r12,#0
        0x10010bea:    4760        `G      BX       r12
    $Ven$TT$L$$Secure_LED_Off
        0x10010bec:    f2431cb1    C...    MOV      r12,#0x31b1
        0x10010bf0:    f2c00c00    ....    MOVT     r12,#0
        0x10010bf4:    4760        `G      BX       r12
    $Ven$TT$L$$CLK_GetPLLClockFreq
        0x10010bf6:    f2431cf9    C...    MOV      r12,#0x31f9
        0x10010bfa:    f2c00c00    ....    MOVT     r12,#0
        0x10010bfe:    4760        `G      BX       r12
    $Ven$TT$L$$CLK_GetCPUFreq
        0x10010c00:    f2431cf1    C...    MOV      r12,#0x31f1
        0x10010c04:    f2c00c00    ....    MOVT     r12,#0
        0x10010c08:    4760        `G      BX       r12
    $Ven$TT$L$$Secure_func
        0x10010c0a:    f2431ca1    C...    MOV      r12,#0x31a1
        0x10010c0e:    f2c00c00    ....    MOVT     r12,#0
        0x10010c12:    4760        `G      BX       r12
    $Ven$TT$L$$Secure_LED_On_callback
        0x10010c14:    f2431cb9    C...    MOV      r12,#0x31b9
        0x10010c18:    f2c00c00    ....    MOVT     r12,#0
        0x10010c1c:    4760        `G      BX       r12
    $Ven$TT$L$$Secure_LED_Off_callback
        0x10010c1e:    f2431cc1    C...    MOV      r12,#0x31c1
        0x10010c22:    f2c00c00    ....    MOVT     r12,#0
        0x10010c26:    4760        `G      BX       r12
    i.__0printf
    __0printf
    __1printf
    __2printf
    __c89printf
    printf
        0x10010c28:    b40f        ..      PUSH     {r0-r3}
        0x10010c2a:    4b05        .K      LDR      r3,[pc,#20] ; [0x10010c40] = 0x10010b45
        0x10010c2c:    b510        ..      PUSH     {r4,lr}
        0x10010c2e:    a903        ..      ADD      r1,sp,#0xc
        0x10010c30:    4a04        .J      LDR      r2,[pc,#16] ; [0x10010c44] = 0x30008210
        0x10010c32:    9802        ..      LDR      r0,[sp,#8]
        0x10010c34:    f000f8da    ....    BL       _printf_core ; 0x10010dec
        0x10010c38:    bc10        ..      POP      {r4}
        0x10010c3a:    f85dfb14    ]...    LDR      pc,[sp],#0x14
    $d
        0x10010c3e:    0000        ..      DCW    0
        0x10010c40:    10010b45    E...    DCD    268503877
        0x10010c44:    30008210    ...0    DCD    805339664
    $t
    i.__scatterload_copy
    __scatterload_copy
        0x10010c48:    e002        ..      B        0x10010c50 ; __scatterload_copy + 8
        0x10010c4a:    c808        ..      LDM      r0!,{r3}
        0x10010c4c:    1f12        ..      SUBS     r2,r2,#4
        0x10010c4e:    c108        ..      STM      r1!,{r3}
        0x10010c50:    2a00        .*      CMP      r2,#0
        0x10010c52:    d1fa        ..      BNE      0x10010c4a ; __scatterload_copy + 2
        0x10010c54:    4770        pG      BX       lr
    i.__scatterload_null
    __scatterload_null
        0x10010c56:    4770        pG      BX       lr
    i.__scatterload_zeroinit
    __scatterload_zeroinit
        0x10010c58:    2000        .       MOVS     r0,#0
        0x10010c5a:    e001        ..      B        0x10010c60 ; __scatterload_zeroinit + 8
        0x10010c5c:    c101        ..      STM      r1!,{r0}
        0x10010c5e:    1f12        ..      SUBS     r2,r2,#4
        0x10010c60:    2a00        .*      CMP      r2,#0
        0x10010c62:    d1fb        ..      BNE      0x10010c5c ; __scatterload_zeroinit + 4
        0x10010c64:    4770        pG      BX       lr
        0x10010c66:    0000        ..      MOVS     r0,r0
    i._fp_digits
    _fp_digits
        0x10010c68:    e92d5fff    -.._    PUSH     {r0-r12,lr}
        0x10010c6c:    b082        ..      SUB      sp,sp,#8
        0x10010c6e:    2100        .!      MOVS     r1,#0
        0x10010c70:    e9dd3004    ...0    LDRD     r3,r0,[sp,#0x10]
        0x10010c74:    0d02        ..      LSRS     r2,r0,#20
        0x10010c76:    f8ddb040    ..@.    LDR      r11,[sp,#0x40]
        0x10010c7a:    4303        .C      ORRS     r3,r3,r0
        0x10010c7c:    d018        ..      BEQ      0x10010cb0 ; _fp_digits + 72
        0x10010c7e:    f6445010    D..P    MOV      r0,#0x4d10
        0x10010c82:    f2a232ff    ...2    SUB      r2,r2,#0x3ff
        0x10010c86:    4342        BC      MULS     r2,r0,r2
        0x10010c88:    1415        ..      ASRS     r5,r2,#16
        0x10010c8a:    9811        ..      LDR      r0,[sp,#0x44]
        0x10010c8c:    2801        .(      CMP      r0,#1
        0x10010c8e:    d01f        ..      BEQ      0x10010cd0 ; _fp_digits + 104
        0x10010c90:    eba5000b    ....    SUB      r0,r5,r11
        0x10010c94:    1c40        @.      ADDS     r0,r0,#1
        0x10010c96:    ea5f0a00    _...    MOVS     r10,r0
        0x10010c9a:    f04f0600    O...    MOV      r6,#0
        0x10010c9e:    4f4e        NO      LDR      r7,[pc,#312] ; [0x10010dd8] = 0x40140000
        0x10010ca0:    f8df9138    ..8.    LDR      r9,[pc,#312] ; [0x10010ddc] = 0x3ff00000
        0x10010ca4:    46b0        .F      MOV      r8,r6
        0x10010ca6:    4650        PF      MOV      r0,r10
        0x10010ca8:    d515        ..      BPL      0x10010cd6 ; _fp_digits + 110
        0x10010caa:    f1ca0400    ....    RSB      r4,r10,#0
        0x10010cae:    e013        ..      B        0x10010cd8 ; _fp_digits + 112
        0x10010cb0:    9811        ..      LDR      r0,[sp,#0x44]
        0x10010cb2:    2401        .$      MOVS     r4,#1
        0x10010cb4:    a34a        J.      ADR      r3,{pc}+0x12c ; 0x10010de0
        0x10010cb6:    2801        .(      CMP      r0,#1
        0x10010cb8:    d101        ..      BNE      0x10010cbe ; _fp_digits + 86
        0x10010cba:    ea6f010b    o...    MVN      r1,r11
        0x10010cbe:    9802        ..      LDR      r0,[sp,#8]
        0x10010cc0:    9a11        ..      LDR      r2,[sp,#0x44]
        0x10010cc2:    e9c03100    ...1    STRD     r3,r1,[r0,#0]
        0x10010cc6:    e9c04202    ...B    STRD     r4,r2,[r0,#8]
        0x10010cca:    b006        ..      ADD      sp,sp,#0x18
        0x10010ccc:    e8bd9ff0    ....    POP      {r4-r12,pc}
        0x10010cd0:    f1cb0000    ....    RSB      r0,r11,#0
        0x10010cd4:    e7df        ..      B        0x10010c96 ; _fp_digits + 46
        0x10010cd6:    4604        .F      MOV      r4,r0
        0x10010cd8:    2100        .!      MOVS     r1,#0
        0x10010cda:    4a40        @J      LDR      r2,[pc,#256] ; [0x10010ddc] = 0x3ff00000
        0x10010cdc:    1849        I.      ADDS     r1,r1,r1
        0x10010cde:    eb425004    B..P    ADC      r0,r2,r4,LSL #20
        0x10010ce2:    e9cd1000    ....    STRD     r1,r0,[sp,#0]
        0x10010ce6:    e012        ..      B        0x10010d0e ; _fp_digits + 166
        0x10010ce8:    07e0        ..      LSLS     r0,r4,#31
        0x10010cea:    d007        ..      BEQ      0x10010cfc ; _fp_digits + 148
        0x10010cec:    4632        2F      MOV      r2,r6
        0x10010cee:    463b        ;F      MOV      r3,r7
        0x10010cf0:    4640        @F      MOV      r0,r8
        0x10010cf2:    4649        IF      MOV      r1,r9
        0x10010cf4:    f7fffbbe    ....    BL       __aeabi_dmul ; 0x10010474
        0x10010cf8:    4680        .F      MOV      r8,r0
        0x10010cfa:    4689        .F      MOV      r9,r1
        0x10010cfc:    4632        2F      MOV      r2,r6
        0x10010cfe:    463b        ;F      MOV      r3,r7
        0x10010d00:    4610        .F      MOV      r0,r2
        0x10010d02:    4619        .F      MOV      r1,r3
        0x10010d04:    f7fffbb6    ....    BL       __aeabi_dmul ; 0x10010474
        0x10010d08:    4606        .F      MOV      r6,r0
        0x10010d0a:    460f        .F      MOV      r7,r1
        0x10010d0c:    1064        d.      ASRS     r4,r4,#1
        0x10010d0e:    2c00        .,      CMP      r4,#0
        0x10010d10:    d1ea        ..      BNE      0x10010ce8 ; _fp_digits + 128
        0x10010d12:    e9dd0104    ....    LDRD     r0,r1,[sp,#0x10]
        0x10010d16:    e9dd2300    ...#    LDRD     r2,r3,[sp,#0]
        0x10010d1a:    f1ba0f00    ....    CMP      r10,#0
        0x10010d1e:    da06        ..      BGE      0x10010d2e ; _fp_digits + 198
        0x10010d20:    f7fffba8    ....    BL       __aeabi_dmul ; 0x10010474
        0x10010d24:    4642        BF      MOV      r2,r8
        0x10010d26:    464b        KF      MOV      r3,r9
        0x10010d28:    f7fffba4    ....    BL       __aeabi_dmul ; 0x10010474
        0x10010d2c:    e005        ..      B        0x10010d3a ; _fp_digits + 210
        0x10010d2e:    f7fffc13    ....    BL       __aeabi_ddiv ; 0x10010558
        0x10010d32:    4642        BF      MOV      r2,r8
        0x10010d34:    464b        KF      MOV      r3,r9
        0x10010d36:    f7fffc0f    ....    BL       __aeabi_ddiv ; 0x10010558
        0x10010d3a:    4604        .F      MOV      r4,r0
        0x10010d3c:    460e        .F      MOV      r6,r1
        0x10010d3e:    2200        ."      MOVS     r2,#0
        0x10010d40:    4b28        (K      LDR      r3,[pc,#160] ; [0x10010de4] = 0x43f00000
        0x10010d42:    f7fffc91    ....    BL       __aeabi_cdrcmple ; 0x10010668
        0x10010d46:    d803        ..      BHI      0x10010d50 ; _fp_digits + 232
        0x10010d48:    f04f30ff    O..0    MOV      r0,#0xffffffff
        0x10010d4c:    4601        .F      MOV      r1,r0
        0x10010d4e:    e007        ..      B        0x10010d60 ; _fp_digits + 248
        0x10010d50:    2200        ."      MOVS     r2,#0
        0x10010d52:    4b25        %K      LDR      r3,[pc,#148] ; [0x10010de8] = 0x3fe00000
        0x10010d54:    4620         F      MOV      r0,r4
        0x10010d56:    4631        1F      MOV      r1,r6
        0x10010d58:    f7fffae5    ....    BL       __I$use$fp ; 0x10010326
        0x10010d5c:    f7fffc6b    ..k.    BL       __aeabi_d2ulz ; 0x10010636
        0x10010d60:    2410        .$      MOVS     r4,#0x10
        0x10010d62:    e009        ..      B        0x10010d78 ; _fp_digits + 272
        0x10010d64:    2c00        .,      CMP      r4,#0
        0x10010d66:    db0a        ..      BLT      0x10010d7e ; _fp_digits + 278
        0x10010d68:    220a        ."      MOVS     r2,#0xa
        0x10010d6a:    2300        .#      MOVS     r3,#0
        0x10010d6c:    f7fffaaa    ....    BL       __aeabi_uldivmod ; 0x100102c4
        0x10010d70:    9b03        ..      LDR      r3,[sp,#0xc]
        0x10010d72:    3230        02      ADDS     r2,r2,#0x30
        0x10010d74:    551a        .U      STRB     r2,[r3,r4]
        0x10010d76:    1e64        d.      SUBS     r4,r4,#1
        0x10010d78:    ea500201    P...    ORRS     r2,r0,r1
        0x10010d7c:    d1f2        ..      BNE      0x10010d64 ; _fp_digits + 252
        0x10010d7e:    1c64        d.      ADDS     r4,r4,#1
        0x10010d80:    9a03        ..      LDR      r2,[sp,#0xc]
        0x10010d82:    f1c40311    ....    RSB      r3,r4,#0x11
        0x10010d86:    4414        .D      ADD      r4,r4,r2
        0x10010d88:    9a11        ..      LDR      r2,[sp,#0x44]
        0x10010d8a:    2a01        .*      CMP      r2,#1
        0x10010d8c:    d003        ..      BEQ      0x10010d96 ; _fp_digits + 302
        0x10010d8e:    2201        ."      MOVS     r2,#1
        0x10010d90:    4308        .C      ORRS     r0,r0,r1
        0x10010d92:    d10d        ..      BNE      0x10010db0 ; _fp_digits + 328
        0x10010d94:    e00a        ..      B        0x10010dac ; _fp_digits + 324
        0x10010d96:    4308        .C      ORRS     r0,r0,r1
        0x10010d98:    d004        ..      BEQ      0x10010da4 ; _fp_digits + 316
        0x10010d9a:    2000        .       MOVS     r0,#0
        0x10010d9c:    f04f0b11    O...    MOV      r11,#0x11
        0x10010da0:    9011        ..      STR      r0,[sp,#0x44]
        0x10010da2:    e772        r.      B        0x10010c8a ; _fp_digits + 34
        0x10010da4:    eba3050b    ....    SUB      r5,r3,r11
        0x10010da8:    1e6d        m.      SUBS     r5,r5,#1
        0x10010daa:    e00d        ..      B        0x10010dc8 ; _fp_digits + 352
        0x10010dac:    455b        [E      CMP      r3,r11
        0x10010dae:    dd04        ..      BLE      0x10010dba ; _fp_digits + 338
        0x10010db0:    f04f0200    O...    MOV      r2,#0
        0x10010db4:    f1050501    ....    ADD      r5,r5,#1
        0x10010db8:    e004        ..      B        0x10010dc4 ; _fp_digits + 348
        0x10010dba:    da03        ..      BGE      0x10010dc4 ; _fp_digits + 348
        0x10010dbc:    f04f0200    O...    MOV      r2,#0
        0x10010dc0:    f1a50501    ....    SUB      r5,r5,#1
        0x10010dc4:    2a00        .*      CMP      r2,#0
        0x10010dc6:    d0ec        ..      BEQ      0x10010da2 ; _fp_digits + 314
        0x10010dc8:    9802        ..      LDR      r0,[sp,#8]
        0x10010dca:    9911        ..      LDR      r1,[sp,#0x44]
        0x10010dcc:    e9c03102    ...1    STRD     r3,r1,[r0,#8]
        0x10010dd0:    e9c04500    ...E    STRD     r4,r5,[r0,#0]
        0x10010dd4:    e779        y.      B        0x10010cca ; _fp_digits + 98
    $d
        0x10010dd6:    0000        ..      DCW    0
        0x10010dd8:    40140000    ...@    DCD    1075052544
        0x10010ddc:    3ff00000    ...?    DCD    1072693248
        0x10010de0:    00000030    0...    DCD    48
        0x10010de4:    43f00000    ...C    DCD    1139802112
        0x10010de8:    3fe00000    ...?    DCD    1071644672
    $t
    i._printf_core
    _printf_core
        0x10010dec:    e92d4fff    -..O    PUSH     {r0-r11,lr}
        0x10010df0:    b095        ..      SUB      sp,sp,#0x54
        0x10010df2:    469b        .F      MOV      r11,r3
        0x10010df4:    4689        .F      MOV      r9,r1
        0x10010df6:    4606        .F      MOV      r6,r0
        0x10010df8:    2500        .%      MOVS     r5,#0
        0x10010dfa:    e20f        ..      B        0x1001121c ; _printf_core + 1072
        0x10010dfc:    2825        %(      CMP      r0,#0x25
        0x10010dfe:    d177        w.      BNE      0x10010ef0 ; _printf_core + 260
        0x10010e00:    2400        .$      MOVS     r4,#0
        0x10010e02:    4627        'F      MOV      r7,r4
        0x10010e04:    4af8        .J      LDR      r2,[pc,#992] ; [0x100111e8] = 0x12809
        0x10010e06:    2101        .!      MOVS     r1,#1
        0x10010e08:    9405        ..      STR      r4,[sp,#0x14]
        0x10010e0a:    e000        ..      B        0x10010e0e ; _printf_core + 34
        0x10010e0c:    4304        .C      ORRS     r4,r4,r0
        0x10010e0e:    f8163f01    ...?    LDRB     r3,[r6,#1]!
        0x10010e12:    3b20         ;      SUBS     r3,r3,#0x20
        0x10010e14:    fa01f003    ....    LSL      r0,r1,r3
        0x10010e18:    4210        .B      TST      r0,r2
        0x10010e1a:    d1f7        ..      BNE      0x10010e0c ; _printf_core + 32
        0x10010e1c:    7830        0x      LDRB     r0,[r6,#0]
        0x10010e1e:    282a        *(      CMP      r0,#0x2a
        0x10010e20:    d011        ..      BEQ      0x10010e46 ; _printf_core + 90
        0x10010e22:    f06f032f    o./.    MVN      r3,#0x2f
        0x10010e26:    7830        0x      LDRB     r0,[r6,#0]
        0x10010e28:    f1a00230    ..0.    SUB      r2,r0,#0x30
        0x10010e2c:    2a09        .*      CMP      r2,#9
        0x10010e2e:    d816        ..      BHI      0x10010e5e ; _printf_core + 114
        0x10010e30:    9a05        ..      LDR      r2,[sp,#0x14]
        0x10010e32:    f0440402    D...    ORR      r4,r4,#2
        0x10010e36:    eb020282    ....    ADD      r2,r2,r2,LSL #2
        0x10010e3a:    eb030242    ..B.    ADD      r2,r3,r2,LSL #1
        0x10010e3e:    4410        .D      ADD      r0,r0,r2
        0x10010e40:    1c76        v.      ADDS     r6,r6,#1
        0x10010e42:    9005        ..      STR      r0,[sp,#0x14]
        0x10010e44:    e7ef        ..      B        0x10010e26 ; _printf_core + 58
        0x10010e46:    f8592b04    Y..+    LDR      r2,[r9],#4
        0x10010e4a:    9205        ..      STR      r2,[sp,#0x14]
        0x10010e4c:    2a00        .*      CMP      r2,#0
        0x10010e4e:    da03        ..      BGE      0x10010e58 ; _printf_core + 108
        0x10010e50:    4250        PB      RSBS     r0,r2,#0
        0x10010e52:    f4445400    D..T    ORR      r4,r4,#0x2000
        0x10010e56:    9005        ..      STR      r0,[sp,#0x14]
        0x10010e58:    f0440402    D...    ORR      r4,r4,#2
        0x10010e5c:    1c76        v.      ADDS     r6,r6,#1
        0x10010e5e:    7830        0x      LDRB     r0,[r6,#0]
        0x10010e60:    282e        .(      CMP      r0,#0x2e
        0x10010e62:    d116        ..      BNE      0x10010e92 ; _printf_core + 166
        0x10010e64:    f8160f01    ....    LDRB     r0,[r6,#1]!
        0x10010e68:    f0440404    D...    ORR      r4,r4,#4
        0x10010e6c:    282a        *(      CMP      r0,#0x2a
        0x10010e6e:    d00d        ..      BEQ      0x10010e8c ; _printf_core + 160
        0x10010e70:    f06f022f    o./.    MVN      r2,#0x2f
        0x10010e74:    7830        0x      LDRB     r0,[r6,#0]
        0x10010e76:    f1a00330    ..0.    SUB      r3,r0,#0x30
        0x10010e7a:    2b09        .+      CMP      r3,#9
        0x10010e7c:    d809        ..      BHI      0x10010e92 ; _printf_core + 166
        0x10010e7e:    eb070387    ....    ADD      r3,r7,r7,LSL #2
        0x10010e82:    eb020343    ..C.    ADD      r3,r2,r3,LSL #1
        0x10010e86:    18c7        ..      ADDS     r7,r0,r3
        0x10010e88:    1c76        v.      ADDS     r6,r6,#1
        0x10010e8a:    e7f3        ..      B        0x10010e74 ; _printf_core + 136
        0x10010e8c:    f8597b04    Y..{    LDR      r7,[r9],#4
        0x10010e90:    1c76        v.      ADDS     r6,r6,#1
        0x10010e92:    7830        0x      LDRB     r0,[r6,#0]
        0x10010e94:    286c        l(      CMP      r0,#0x6c
        0x10010e96:    d00f        ..      BEQ      0x10010eb8 ; _printf_core + 204
        0x10010e98:    dc06        ..      BGT      0x10010ea8 ; _printf_core + 188
        0x10010e9a:    284c        L(      CMP      r0,#0x4c
        0x10010e9c:    d017        ..      BEQ      0x10010ece ; _printf_core + 226
        0x10010e9e:    2868        h(      CMP      r0,#0x68
        0x10010ea0:    d00d        ..      BEQ      0x10010ebe ; _printf_core + 210
        0x10010ea2:    286a        j(      CMP      r0,#0x6a
        0x10010ea4:    d114        ..      BNE      0x10010ed0 ; _printf_core + 228
        0x10010ea6:    e004        ..      B        0x10010eb2 ; _printf_core + 198
        0x10010ea8:    2874        t(      CMP      r0,#0x74
        0x10010eaa:    d010        ..      BEQ      0x10010ece ; _printf_core + 226
        0x10010eac:    287a        z(      CMP      r0,#0x7a
        0x10010eae:    d10f        ..      BNE      0x10010ed0 ; _printf_core + 228
        0x10010eb0:    e00d        ..      B        0x10010ece ; _printf_core + 226
        0x10010eb2:    f4441400    D...    ORR      r4,r4,#0x200000
        0x10010eb6:    e00a        ..      B        0x10010ece ; _printf_core + 226
        0x10010eb8:    f4441480    D...    ORR      r4,r4,#0x100000
        0x10010ebc:    e001        ..      B        0x10010ec2 ; _printf_core + 214
        0x10010ebe:    f4441440    D.@.    ORR      r4,r4,#0x300000
        0x10010ec2:    7872        rx      LDRB     r2,[r6,#1]
        0x10010ec4:    4282        .B      CMP      r2,r0
        0x10010ec6:    d102        ..      BNE      0x10010ece ; _printf_core + 226
        0x10010ec8:    f5041480    ....    ADD      r4,r4,#0x100000
        0x10010ecc:    1c76        v.      ADDS     r6,r6,#1
        0x10010ece:    1c76        v.      ADDS     r6,r6,#1
        0x10010ed0:    7830        0x      LDRB     r0,[r6,#0]
        0x10010ed2:    2866        f(      CMP      r0,#0x66
        0x10010ed4:    d00b        ..      BEQ      0x10010eee ; _printf_core + 258
        0x10010ed6:    dc13        ..      BGT      0x10010f00 ; _printf_core + 276
        0x10010ed8:    2858        X(      CMP      r0,#0x58
        0x10010eda:    d077        w.      BEQ      0x10010fcc ; _printf_core + 480
        0x10010edc:    dc09        ..      BGT      0x10010ef2 ; _printf_core + 262
        0x10010ede:    2800        .(      CMP      r0,#0
        0x10010ee0:    d075        u.      BEQ      0x10010fce ; _printf_core + 482
        0x10010ee2:    2845        E(      CMP      r0,#0x45
        0x10010ee4:    d0f6        ..      BEQ      0x10010ed4 ; _printf_core + 232
        0x10010ee6:    2846        F(      CMP      r0,#0x46
        0x10010ee8:    d0f4        ..      BEQ      0x10010ed4 ; _printf_core + 232
        0x10010eea:    2847        G(      CMP      r0,#0x47
        0x10010eec:    d11a        ..      BNE      0x10010f24 ; _printf_core + 312
        0x10010eee:    e19d        ..      B        0x1001122c ; _printf_core + 1088
        0x10010ef0:    e018        ..      B        0x10010f24 ; _printf_core + 312
        0x10010ef2:    2863        c(      CMP      r0,#0x63
        0x10010ef4:    d035        5.      BEQ      0x10010f62 ; _printf_core + 374
        0x10010ef6:    2864        d(      CMP      r0,#0x64
        0x10010ef8:    d079        y.      BEQ      0x10010fee ; _printf_core + 514
        0x10010efa:    2865        e(      CMP      r0,#0x65
        0x10010efc:    d112        ..      BNE      0x10010f24 ; _printf_core + 312
        0x10010efe:    e195        ..      B        0x1001122c ; _printf_core + 1088
        0x10010f00:    2870        p(      CMP      r0,#0x70
        0x10010f02:    d073        s.      BEQ      0x10010fec ; _printf_core + 512
        0x10010f04:    dc08        ..      BGT      0x10010f18 ; _printf_core + 300
        0x10010f06:    2867        g(      CMP      r0,#0x67
        0x10010f08:    d0f1        ..      BEQ      0x10010eee ; _printf_core + 258
        0x10010f0a:    2869        i(      CMP      r0,#0x69
        0x10010f0c:    d06f        o.      BEQ      0x10010fee ; _printf_core + 514
        0x10010f0e:    286e        n(      CMP      r0,#0x6e
        0x10010f10:    d00d        ..      BEQ      0x10010f2e ; _printf_core + 322
        0x10010f12:    286f        o(      CMP      r0,#0x6f
        0x10010f14:    d106        ..      BNE      0x10010f24 ; _printf_core + 312
        0x10010f16:    e0b5        ..      B        0x10011084 ; _printf_core + 664
        0x10010f18:    2873        s(      CMP      r0,#0x73
        0x10010f1a:    d02c        ,.      BEQ      0x10010f76 ; _printf_core + 394
        0x10010f1c:    2875        u(      CMP      r0,#0x75
        0x10010f1e:    d075        u.      BEQ      0x1001100c ; _printf_core + 544
        0x10010f20:    2878        x(      CMP      r0,#0x78
        0x10010f22:    d074        t.      BEQ      0x1001100e ; _printf_core + 546
        0x10010f24:    465a        ZF      MOV      r2,r11
        0x10010f26:    9917        ..      LDR      r1,[sp,#0x5c]
        0x10010f28:    4790        .G      BLX      r2
        0x10010f2a:    1c6d        m.      ADDS     r5,r5,#1
        0x10010f2c:    e175        u.      B        0x1001121a ; _printf_core + 1070
        0x10010f2e:    f3c45002    ...P    UBFX     r0,r4,#20,#3
        0x10010f32:    2802        .(      CMP      r0,#2
        0x10010f34:    d009        ..      BEQ      0x10010f4a ; _printf_core + 350
        0x10010f36:    2803        .(      CMP      r0,#3
        0x10010f38:    d00d        ..      BEQ      0x10010f56 ; _printf_core + 362
        0x10010f3a:    f8d91000    ....    LDR      r1,[r9,#0]
        0x10010f3e:    2804        .(      CMP      r0,#4
        0x10010f40:    d00d        ..      BEQ      0x10010f5e ; _printf_core + 370
        0x10010f42:    600d        .`      STR      r5,[r1,#0]
        0x10010f44:    f1090904    ....    ADD      r9,r9,#4
        0x10010f48:    e167        g.      B        0x1001121a ; _printf_core + 1070
        0x10010f4a:    f8d91000    ....    LDR      r1,[r9,#0]
        0x10010f4e:    17ea        ..      ASRS     r2,r5,#31
        0x10010f50:    e9c15200    ...R    STRD     r5,r2,[r1,#0]
        0x10010f54:    e7f6        ..      B        0x10010f44 ; _printf_core + 344
        0x10010f56:    f8d91000    ....    LDR      r1,[r9,#0]
        0x10010f5a:    800d        ..      STRH     r5,[r1,#0]
        0x10010f5c:    e7f2        ..      B        0x10010f44 ; _printf_core + 344
        0x10010f5e:    700d        .p      STRB     r5,[r1,#0]
        0x10010f60:    e7f0        ..      B        0x10010f44 ; _printf_core + 344
        0x10010f62:    f8191b04    ....    LDRB     r1,[r9],#4
        0x10010f66:    f88d1000    ....    STRB     r1,[sp,#0]
        0x10010f6a:    2000        .       MOVS     r0,#0
        0x10010f6c:    f88d0001    ....    STRB     r0,[sp,#1]
        0x10010f70:    46ea        .F      MOV      r10,sp
        0x10010f72:    2001        .       MOVS     r0,#1
        0x10010f74:    e003        ..      B        0x10010f7e ; _printf_core + 402
        0x10010f76:    f859ab04    Y...    LDR      r10,[r9],#4
        0x10010f7a:    f04f30ff    O..0    MOV      r0,#0xffffffff
        0x10010f7e:    0761        a.      LSLS     r1,r4,#29
        0x10010f80:    f04f0100    O...    MOV      r1,#0
        0x10010f84:    d402        ..      BMI      0x10010f8c ; _printf_core + 416
        0x10010f86:    e00d        ..      B        0x10010fa4 ; _printf_core + 440
        0x10010f88:    f1080101    ....    ADD      r1,r8,#1
        0x10010f8c:    4688        .F      MOV      r8,r1
        0x10010f8e:    42b9        .B      CMP      r1,r7
        0x10010f90:    da0f        ..      BGE      0x10010fb2 ; _printf_core + 454
        0x10010f92:    4580        .E      CMP      r8,r0
        0x10010f94:    dbf8        ..      BLT      0x10010f88 ; _printf_core + 412
        0x10010f96:    f81a1008    ....    LDRB     r1,[r10,r8]
        0x10010f9a:    2900        .)      CMP      r1,#0
        0x10010f9c:    d1f4        ..      BNE      0x10010f88 ; _printf_core + 412
        0x10010f9e:    e008        ..      B        0x10010fb2 ; _printf_core + 454
        0x10010fa0:    f1080101    ....    ADD      r1,r8,#1
        0x10010fa4:    4688        .F      MOV      r8,r1
        0x10010fa6:    4281        .B      CMP      r1,r0
        0x10010fa8:    dbfa        ..      BLT      0x10010fa0 ; _printf_core + 436
        0x10010faa:    f81a1008    ....    LDRB     r1,[r10,r8]
        0x10010fae:    2900        .)      CMP      r1,#0
        0x10010fb0:    d1f6        ..      BNE      0x10010fa0 ; _printf_core + 436
        0x10010fb2:    9805        ..      LDR      r0,[sp,#0x14]
        0x10010fb4:    465b        [F      MOV      r3,r11
        0x10010fb6:    eba00708    ....    SUB      r7,r0,r8
        0x10010fba:    4621        !F      MOV      r1,r4
        0x10010fbc:    4638        8F      MOV      r0,r7
        0x10010fbe:    9a17        ..      LDR      r2,[sp,#0x5c]
        0x10010fc0:    f000fa94    ....    BL       _printf_pre_padding ; 0x100114ec
        0x10010fc4:    4428        (D      ADD      r0,r0,r5
        0x10010fc6:    eb000508    ....    ADD      r5,r0,r8
        0x10010fca:    e007        ..      B        0x10010fdc ; _printf_core + 496
        0x10010fcc:    e04d        M.      B        0x1001106a ; _printf_core + 638
        0x10010fce:    e129        ).      B        0x10011224 ; _printf_core + 1080
        0x10010fd0:    e00d        ..      B        0x10010fee ; _printf_core + 514
        0x10010fd2:    f81a0b01    ....    LDRB     r0,[r10],#1
        0x10010fd6:    465a        ZF      MOV      r2,r11
        0x10010fd8:    9917        ..      LDR      r1,[sp,#0x5c]
        0x10010fda:    4790        .G      BLX      r2
        0x10010fdc:    f1b80801    ....    SUBS     r8,r8,#1
        0x10010fe0:    d2f7        ..      BCS      0x10010fd2 ; _printf_core + 486
        0x10010fe2:    465b        [F      MOV      r3,r11
        0x10010fe4:    4621        !F      MOV      r1,r4
        0x10010fe6:    4638        8F      MOV      r0,r7
        0x10010fe8:    9a17        ..      LDR      r2,[sp,#0x5c]
        0x10010fea:    e113        ..      B        0x10011214 ; _printf_core + 1064
        0x10010fec:    e042        B.      B        0x10011074 ; _printf_core + 648
        0x10010fee:    220a        ."      MOVS     r2,#0xa
        0x10010ff0:    9200        ..      STR      r2,[sp,#0]
        0x10010ff2:    f3c45202    ...R    UBFX     r2,r4,#20,#3
        0x10010ff6:    f04f0a00    O...    MOV      r10,#0
        0x10010ffa:    2a02        .*      CMP      r2,#2
        0x10010ffc:    d008        ..      BEQ      0x10011010 ; _printf_core + 548
        0x10010ffe:    f859cb04    Y...    LDR      r12,[r9],#4
        0x10011002:    2a03        .*      CMP      r2,#3
        0x10011004:    ea4f71ec    O..q    ASR      r1,r12,#31
        0x10011008:    d00a        ..      BEQ      0x10011020 ; _printf_core + 564
        0x1001100a:    e00d        ..      B        0x10011028 ; _printf_core + 572
        0x1001100c:    e029        ).      B        0x10011062 ; _printf_core + 630
        0x1001100e:    e02a        *.      B        0x10011066 ; _printf_core + 634
        0x10011010:    f1090107    ....    ADD      r1,r9,#7
        0x10011014:    f0210207    !...    BIC      r2,r1,#7
        0x10011018:    e8f2c102    ....    LDRD     r12,r1,[r2],#8
        0x1001101c:    4691        .F      MOV      r9,r2
        0x1001101e:    e009        ..      B        0x10011034 ; _printf_core + 584
        0x10011020:    fa0ffc8c    ....    SXTH     r12,r12
        0x10011024:    ea4f71ec    O..q    ASR      r1,r12,#31
        0x10011028:    2a04        .*      CMP      r2,#4
        0x1001102a:    d103        ..      BNE      0x10011034 ; _printf_core + 584
        0x1001102c:    fa4ffc8c    O...    SXTB     r12,r12
        0x10011030:    ea4f71ec    O..q    ASR      r1,r12,#31
        0x10011034:    2900        .)      CMP      r1,#0
        0x10011036:    da07        ..      BGE      0x10011048 ; _printf_core + 604
        0x10011038:    460a        .F      MOV      r2,r1
        0x1001103a:    2100        .!      MOVS     r1,#0
        0x1001103c:    f1dc0c00    ....    RSBS     r12,r12,#0
        0x10011040:    eb610102    a...    SBC      r1,r1,r2
        0x10011044:    222d        -"      MOVS     r2,#0x2d
        0x10011046:    e002        ..      B        0x1001104e ; _printf_core + 610
        0x10011048:    0522        ".      LSLS     r2,r4,#20
        0x1001104a:    d504        ..      BPL      0x10011056 ; _printf_core + 618
        0x1001104c:    222b        +"      MOVS     r2,#0x2b
        0x1001104e:    f88d2004    ...     STRB     r2,[sp,#4]
        0x10011052:    2201        ."      MOVS     r2,#1
        0x10011054:    e003        ..      B        0x1001105e ; _printf_core + 626
        0x10011056:    07e2        ..      LSLS     r2,r4,#31
        0x10011058:    d001        ..      BEQ      0x1001105e ; _printf_core + 626
        0x1001105a:    2220         "      MOVS     r2,#0x20
        0x1001105c:    e7f7        ..      B        0x1001104e ; _printf_core + 610
        0x1001105e:    4690        .F      MOV      r8,r2
        0x10011060:    e059        Y.      B        0x10011116 ; _printf_core + 810
        0x10011062:    210a        .!      MOVS     r1,#0xa
        0x10011064:    e002        ..      B        0x1001106c ; _printf_core + 640
        0x10011066:    2210        ."      MOVS     r2,#0x10
        0x10011068:    e00d        ..      B        0x10011086 ; _printf_core + 666
        0x1001106a:    2110        .!      MOVS     r1,#0x10
        0x1001106c:    f04f0a00    O...    MOV      r10,#0
        0x10011070:    9100        ..      STR      r1,[sp,#0]
        0x10011072:    e00b        ..      B        0x1001108c ; _printf_core + 672
        0x10011074:    2210        ."      MOVS     r2,#0x10
        0x10011076:    f04f0a00    O...    MOV      r10,#0
        0x1001107a:    f0440404    D...    ORR      r4,r4,#4
        0x1001107e:    2708        .'      MOVS     r7,#8
        0x10011080:    9200        ..      STR      r2,[sp,#0]
        0x10011082:    e003        ..      B        0x1001108c ; _printf_core + 672
        0x10011084:    2208        ."      MOVS     r2,#8
        0x10011086:    f04f0a00    O...    MOV      r10,#0
        0x1001108a:    9200        ..      STR      r2,[sp,#0]
        0x1001108c:    f3c45202    ...R    UBFX     r2,r4,#20,#3
        0x10011090:    2a02        .*      CMP      r2,#2
        0x10011092:    d005        ..      BEQ      0x100110a0 ; _printf_core + 692
        0x10011094:    f859cb04    Y...    LDR      r12,[r9],#4
        0x10011098:    2100        .!      MOVS     r1,#0
        0x1001109a:    2a03        .*      CMP      r2,#3
        0x1001109c:    d008        ..      BEQ      0x100110b0 ; _printf_core + 708
        0x1001109e:    e009        ..      B        0x100110b4 ; _printf_core + 712
        0x100110a0:    f1090107    ....    ADD      r1,r9,#7
        0x100110a4:    f0210207    !...    BIC      r2,r1,#7
        0x100110a8:    e8f2c102    ....    LDRD     r12,r1,[r2],#8
        0x100110ac:    4691        .F      MOV      r9,r2
        0x100110ae:    e005        ..      B        0x100110bc ; _printf_core + 720
        0x100110b0:    fa1ffc8c    ....    UXTH     r12,r12
        0x100110b4:    2a04        .*      CMP      r2,#4
        0x100110b6:    d101        ..      BNE      0x100110bc ; _printf_core + 720
        0x100110b8:    f00c0cff    ....    AND      r12,r12,#0xff
        0x100110bc:    f04f0800    O...    MOV      r8,#0
        0x100110c0:    0722        ".      LSLS     r2,r4,#28
        0x100110c2:    d528        (.      BPL      0x10011116 ; _printf_core + 810
        0x100110c4:    2870        p(      CMP      r0,#0x70
        0x100110c6:    d006        ..      BEQ      0x100110d6 ; _printf_core + 746
        0x100110c8:    9b00        ..      LDR      r3,[sp,#0]
        0x100110ca:    f0830310    ....    EOR      r3,r3,#0x10
        0x100110ce:    ea53030a    S...    ORRS     r3,r3,r10
        0x100110d2:    d005        ..      BEQ      0x100110e0 ; _printf_core + 756
        0x100110d4:    e00e        ..      B        0x100110f4 ; _printf_core + 776
        0x100110d6:    2240        @"      MOVS     r2,#0x40
        0x100110d8:    f88d2004    ...     STRB     r2,[sp,#4]
        0x100110dc:    2201        ."      MOVS     r2,#1
        0x100110de:    e008        ..      B        0x100110f2 ; _printf_core + 774
        0x100110e0:    ea5c0201    \...    ORRS     r2,r12,r1
        0x100110e4:    d006        ..      BEQ      0x100110f4 ; _printf_core + 776
        0x100110e6:    2230        0"      MOVS     r2,#0x30
        0x100110e8:    f88d2004    ...     STRB     r2,[sp,#4]
        0x100110ec:    f88d0005    ....    STRB     r0,[sp,#5]
        0x100110f0:    2202        ."      MOVS     r2,#2
        0x100110f2:    4690        .F      MOV      r8,r2
        0x100110f4:    9b00        ..      LDR      r3,[sp,#0]
        0x100110f6:    f0830308    ....    EOR      r3,r3,#8
        0x100110fa:    ea53030a    S...    ORRS     r3,r3,r10
        0x100110fe:    d10a        ..      BNE      0x10011116 ; _printf_core + 810
        0x10011100:    ea5c0201    \...    ORRS     r2,r12,r1
        0x10011104:    d101        ..      BNE      0x1001110a ; _printf_core + 798
        0x10011106:    0762        b.      LSLS     r2,r4,#29
        0x10011108:    d505        ..      BPL      0x10011116 ; _printf_core + 810
        0x1001110a:    2230        0"      MOVS     r2,#0x30
        0x1001110c:    f88d2004    ...     STRB     r2,[sp,#4]
        0x10011110:    f04f0801    O...    MOV      r8,#1
        0x10011114:    1e7f        ..      SUBS     r7,r7,#1
        0x10011116:    2858        X(      CMP      r0,#0x58
        0x10011118:    d004        ..      BEQ      0x10011124 ; _printf_core + 824
        0x1001111a:    a034        4.      ADR      r0,{pc}+0xd2 ; 0x100111ec
        0x1001111c:    9003        ..      STR      r0,[sp,#0xc]
        0x1001111e:    a80e        ..      ADD      r0,sp,#0x38
        0x10011120:    9002        ..      STR      r0,[sp,#8]
        0x10011122:    e00d        ..      B        0x10011140 ; _printf_core + 852
        0x10011124:    a036        6.      ADR      r0,{pc}+0xdc ; 0x10011200
        0x10011126:    e7f9        ..      B        0x1001111c ; _printf_core + 816
        0x10011128:    4653        SF      MOV      r3,r10
        0x1001112a:    4660        `F      MOV      r0,r12
        0x1001112c:    9a00        ..      LDR      r2,[sp,#0]
        0x1001112e:    f7fff8c9    ....    BL       __aeabi_uldivmod ; 0x100102c4
        0x10011132:    4684        .F      MOV      r12,r0
        0x10011134:    9803        ..      LDR      r0,[sp,#0xc]
        0x10011136:    5c82        .\      LDRB     r2,[r0,r2]
        0x10011138:    9802        ..      LDR      r0,[sp,#8]
        0x1001113a:    1e40        @.      SUBS     r0,r0,#1
        0x1001113c:    9002        ..      STR      r0,[sp,#8]
        0x1001113e:    7002        .p      STRB     r2,[r0,#0]
        0x10011140:    ea5c0001    \...    ORRS     r0,r12,r1
        0x10011144:    d1f0        ..      BNE      0x10011128 ; _printf_core + 828
        0x10011146:    9802        ..      LDR      r0,[sp,#8]
        0x10011148:    a906        ..      ADD      r1,sp,#0x18
        0x1001114a:    1a08        ..      SUBS     r0,r1,r0
        0x1001114c:    f1000a20    .. .    ADD      r10,r0,#0x20
        0x10011150:    0760        `.      LSLS     r0,r4,#29
        0x10011152:    d502        ..      BPL      0x1001115a ; _printf_core + 878
        0x10011154:    f4243480    $..4    BIC      r4,r4,#0x10000
        0x10011158:    e000        ..      B        0x1001115c ; _printf_core + 880
        0x1001115a:    2701        .'      MOVS     r7,#1
        0x1001115c:    4557        WE      CMP      r7,r10
        0x1001115e:    dd02        ..      BLE      0x10011166 ; _printf_core + 890
        0x10011160:    eba7000a    ....    SUB      r0,r7,r10
        0x10011164:    e000        ..      B        0x10011168 ; _printf_core + 892
        0x10011166:    2000        .       MOVS     r0,#0
        0x10011168:    eb00010a    ....    ADD      r1,r0,r10
        0x1001116c:    9000        ..      STR      r0,[sp,#0]
        0x1001116e:    9805        ..      LDR      r0,[sp,#0x14]
        0x10011170:    4441        AD      ADD      r1,r1,r8
        0x10011172:    1a40        @.      SUBS     r0,r0,r1
        0x10011174:    9005        ..      STR      r0,[sp,#0x14]
        0x10011176:    03e0        ..      LSLS     r0,r4,#15
        0x10011178:    d406        ..      BMI      0x10011188 ; _printf_core + 924
        0x1001117a:    465b        [F      MOV      r3,r11
        0x1001117c:    4621        !F      MOV      r1,r4
        0x1001117e:    9a17        ..      LDR      r2,[sp,#0x5c]
        0x10011180:    9805        ..      LDR      r0,[sp,#0x14]
        0x10011182:    f000f9b3    ....    BL       _printf_pre_padding ; 0x100114ec
        0x10011186:    4405        .D      ADD      r5,r5,r0
        0x10011188:    2700        .'      MOVS     r7,#0
        0x1001118a:    e006        ..      B        0x1001119a ; _printf_core + 942
        0x1001118c:    a801        ..      ADD      r0,sp,#4
        0x1001118e:    465a        ZF      MOV      r2,r11
        0x10011190:    5dc0        .]      LDRB     r0,[r0,r7]
        0x10011192:    9917        ..      LDR      r1,[sp,#0x5c]
        0x10011194:    4790        .G      BLX      r2
        0x10011196:    1c6d        m.      ADDS     r5,r5,#1
        0x10011198:    1c7f        ..      ADDS     r7,r7,#1
        0x1001119a:    4547        GE      CMP      r7,r8
        0x1001119c:    dbf6        ..      BLT      0x1001118c ; _printf_core + 928
        0x1001119e:    03e0        ..      LSLS     r0,r4,#15
        0x100111a0:    d50c        ..      BPL      0x100111bc ; _printf_core + 976
        0x100111a2:    465b        [F      MOV      r3,r11
        0x100111a4:    4621        !F      MOV      r1,r4
        0x100111a6:    9a17        ..      LDR      r2,[sp,#0x5c]
        0x100111a8:    9805        ..      LDR      r0,[sp,#0x14]
        0x100111aa:    f000f99f    ....    BL       _printf_pre_padding ; 0x100114ec
        0x100111ae:    4405        .D      ADD      r5,r5,r0
        0x100111b0:    e004        ..      B        0x100111bc ; _printf_core + 976
        0x100111b2:    2030        0       MOVS     r0,#0x30
        0x100111b4:    465a        ZF      MOV      r2,r11
        0x100111b6:    9917        ..      LDR      r1,[sp,#0x5c]
        0x100111b8:    4790        .G      BLX      r2
        0x100111ba:    1c6d        m.      ADDS     r5,r5,#1
        0x100111bc:    9900        ..      LDR      r1,[sp,#0]
        0x100111be:    1e48        H.      SUBS     r0,r1,#1
        0x100111c0:    9000        ..      STR      r0,[sp,#0]
        0x100111c2:    2900        .)      CMP      r1,#0
        0x100111c4:    dcf5        ..      BGT      0x100111b2 ; _printf_core + 966
        0x100111c6:    e008        ..      B        0x100111da ; _printf_core + 1006
        0x100111c8:    9802        ..      LDR      r0,[sp,#8]
        0x100111ca:    9902        ..      LDR      r1,[sp,#8]
        0x100111cc:    465a        ZF      MOV      r2,r11
        0x100111ce:    7800        .x      LDRB     r0,[r0,#0]
        0x100111d0:    1c49        I.      ADDS     r1,r1,#1
        0x100111d2:    9102        ..      STR      r1,[sp,#8]
        0x100111d4:    9917        ..      LDR      r1,[sp,#0x5c]
        0x100111d6:    4790        .G      BLX      r2
        0x100111d8:    1c6d        m.      ADDS     r5,r5,#1
        0x100111da:    f1ba0100    ....    SUBS     r1,r10,#0
        0x100111de:    f1aa0a01    ....    SUB      r10,r10,#1
        0x100111e2:    dcf1        ..      BGT      0x100111c8 ; _printf_core + 988
        0x100111e4:    e165        e.      B        0x100114b2 ; _printf_core + 1734
    $d
        0x100111e6:    0000        ..      DCW    0
        0x100111e8:    00012809    .(..    DCD    75785
        0x100111ec:    33323130    0123    DCD    858927408
        0x100111f0:    37363534    4567    DCD    926299444
        0x100111f4:    62613938    89ab    DCD    1650538808
        0x100111f8:    66656463    cdef    DCD    1717920867
        0x100111fc:    00000000    ....    DCD    0
        0x10011200:    33323130    0123    DCD    858927408
        0x10011204:    37363534    4567    DCD    926299444
        0x10011208:    42413938    89AB    DCD    1111570744
        0x1001120c:    46454443    CDEF    DCD    1178944579
        0x10011210:    00000000    ....    DCD    0
    $t
        0x10011214:    f000f958    ..X.    BL       _printf_post_padding ; 0x100114c8
        0x10011218:    4405        .D      ADD      r5,r5,r0
        0x1001121a:    1c76        v.      ADDS     r6,r6,#1
        0x1001121c:    7830        0x      LDRB     r0,[r6,#0]
        0x1001121e:    2800        .(      CMP      r0,#0
        0x10011220:    f47fadec    ....    BNE      0x10010dfc ; _printf_core + 16
        0x10011224:    b019        ..      ADD      sp,sp,#0x64
        0x10011226:    4628        (F      MOV      r0,r5
        0x10011228:    e8bd8ff0    ....    POP      {r4-r11,pc}
        0x1001122c:    0762        b.      LSLS     r2,r4,#29
        0x1001122e:    d400        ..      BMI      0x10011232 ; _printf_core + 1094
        0x10011230:    2706        .'      MOVS     r7,#6
        0x10011232:    f1090207    ....    ADD      r2,r9,#7
        0x10011236:    f0220c07    "...    BIC      r12,r2,#7
        0x1001123a:    e8fc2302    ...#    LDRD     r2,r3,[r12],#8
        0x1001123e:    46e1        .F      MOV      r9,r12
        0x10011240:    f0034800    ...H    AND      r8,r3,#0x80000000
        0x10011244:    ea5f0c08    _...    MOVS     r12,r8
        0x10011248:    d002        ..      BEQ      0x10011250 ; _printf_core + 1124
        0x1001124a:    f20f2c70    ..p,    ADR.W    r12,{pc}+0x272 ; 0x100114bc
        0x1001124e:    e00d        ..      B        0x1001126c ; _printf_core + 1152
        0x10011250:    ea5f5c04    _..\    LSLS     r12,r4,#20
        0x10011254:    d502        ..      BPL      0x1001125c ; _printf_core + 1136
        0x10011256:    f20f2c68    ..h,    ADR.W    r12,{pc}+0x26a ; 0x100114c0
        0x1001125a:    e007        ..      B        0x1001126c ; _printf_core + 1152
        0x1001125c:    ea5f7cc4    _..|    LSLS     r12,r4,#31
        0x10011260:    d002        ..      BEQ      0x10011268 ; _printf_core + 1148
        0x10011262:    f20f2c60    ..`,    ADR.W    r12,{pc}+0x262 ; 0x100114c4
        0x10011266:    e001        ..      B        0x1001126c ; _printf_core + 1152
        0x10011268:    f2af0c70    ..p.    ADR      r12,{pc}-0x6c ; 0x100111fc
        0x1001126c:    f04f38ff    O..8    MOV      r8,#0xffffffff
        0x10011270:    f0234300    #..C    BIC      r3,r3,#0x80000000
        0x10011274:    f8cdc050    ..P.    STR      r12,[sp,#0x50]
        0x10011278:    2865        e(      CMP      r0,#0x65
        0x1001127a:    d00c        ..      BEQ      0x10011296 ; _printf_core + 1194
        0x1001127c:    dc06        ..      BGT      0x1001128c ; _printf_core + 1184
        0x1001127e:    2845        E(      CMP      r0,#0x45
        0x10011280:    d009        ..      BEQ      0x10011296 ; _printf_core + 1194
        0x10011282:    2846        F(      CMP      r0,#0x46
        0x10011284:    d01d        ..      BEQ      0x100112c2 ; _printf_core + 1238
        0x10011286:    2847        G(      CMP      r0,#0x47
        0x10011288:    d13d        =.      BNE      0x10011306 ; _printf_core + 1306
        0x1001128a:    e03d        =.      B        0x10011308 ; _printf_core + 1308
        0x1001128c:    2866        f(      CMP      r0,#0x66
        0x1001128e:    d018        ..      BEQ      0x100112c2 ; _printf_core + 1238
        0x10011290:    2867        g(      CMP      r0,#0x67
        0x10011292:    d17e        ~.      BNE      0x10011392 ; _printf_core + 1446
        0x10011294:    e038        8.      B        0x10011308 ; _printf_core + 1308
        0x10011296:    2100        .!      MOVS     r1,#0
        0x10011298:    2f11        ./      CMP      r7,#0x11
        0x1001129a:    db01        ..      BLT      0x100112a0 ; _printf_core + 1204
        0x1001129c:    2011        .       MOVS     r0,#0x11
        0x1001129e:    e000        ..      B        0x100112a2 ; _printf_core + 1206
        0x100112a0:    1c78        x.      ADDS     r0,r7,#1
        0x100112a2:    e9cd0100    ....    STRD     r0,r1,[sp,#0]
        0x100112a6:    a906        ..      ADD      r1,sp,#0x18
        0x100112a8:    a80e        ..      ADD      r0,sp,#0x38
        0x100112aa:    f7fffcdd    ....    BL       _fp_digits ; 0x10010c68
        0x100112ae:    e9dd010f    ....    LDRD     r0,r1,[sp,#0x3c]
        0x100112b2:    9a0e        ..      LDR      r2,[sp,#0x38]
        0x100112b4:    9103        ..      STR      r1,[sp,#0xc]
        0x100112b6:    2100        .!      MOVS     r1,#0
        0x100112b8:    9200        ..      STR      r2,[sp,#0]
        0x100112ba:    f1070a01    ....    ADD      r10,r7,#1
        0x100112be:    9104        ..      STR      r1,[sp,#0x10]
        0x100112c0:    e04d        M.      B        0x1001135e ; _printf_core + 1394
        0x100112c2:    f04f4000    O..@    MOV      r0,#0x80000000
        0x100112c6:    9700        ..      STR      r7,[sp,#0]
        0x100112c8:    e9cd1001    ....    STRD     r1,r0,[sp,#4]
        0x100112cc:    a906        ..      ADD      r1,sp,#0x18
        0x100112ce:    a80e        ..      ADD      r0,sp,#0x38
        0x100112d0:    f7fffcca    ....    BL       _fp_digits ; 0x10010c68
        0x100112d4:    e9dd020f    ....    LDRD     r0,r2,[sp,#0x3c]
        0x100112d8:    9203        ..      STR      r2,[sp,#0xc]
        0x100112da:    9b0e        ..      LDR      r3,[sp,#0x38]
        0x100112dc:    9911        ..      LDR      r1,[sp,#0x44]
        0x100112de:    2200        ."      MOVS     r2,#0
        0x100112e0:    f8dda00c    ....    LDR      r10,[sp,#0xc]
        0x100112e4:    9300        ..      STR      r3,[sp,#0]
        0x100112e6:    9204        ..      STR      r2,[sp,#0x10]
        0x100112e8:    b911        ..      CBNZ     r1,0x100112f0 ; _printf_core + 1284
        0x100112ea:    1c79        y.      ADDS     r1,r7,#1
        0x100112ec:    eb000a01    ....    ADD      r10,r0,r1
        0x100112f0:    ebb7000a    ....    SUBS     r0,r7,r10
        0x100112f4:    d404        ..      BMI      0x10011300 ; _printf_core + 1300
        0x100112f6:    f1c030ff    ...0    RSB      r0,r0,#0xffffffff
        0x100112fa:    f1070a01    ....    ADD      r10,r7,#1
        0x100112fe:    9004        ..      STR      r0,[sp,#0x10]
        0x10011300:    ebaa0007    ....    SUB      r0,r10,r7
        0x10011304:    9001        ..      STR      r0,[sp,#4]
        0x10011306:    e044        D.      B        0x10011392 ; _printf_core + 1446
        0x10011308:    2f01        ./      CMP      r7,#1
        0x1001130a:    da00        ..      BGE      0x1001130e ; _printf_core + 1314
        0x1001130c:    2701        .'      MOVS     r7,#1
        0x1001130e:    2100        .!      MOVS     r1,#0
        0x10011310:    2f11        ./      CMP      r7,#0x11
        0x10011312:    dd01        ..      BLE      0x10011318 ; _printf_core + 1324
        0x10011314:    2011        .       MOVS     r0,#0x11
        0x10011316:    e000        ..      B        0x1001131a ; _printf_core + 1326
        0x10011318:    4638        8F      MOV      r0,r7
        0x1001131a:    e9cd0100    ....    STRD     r0,r1,[sp,#0]
        0x1001131e:    a906        ..      ADD      r1,sp,#0x18
        0x10011320:    a80e        ..      ADD      r0,sp,#0x38
        0x10011322:    f7fffca1    ....    BL       _fp_digits ; 0x10010c68
        0x10011326:    e9dd010f    ....    LDRD     r0,r1,[sp,#0x3c]
        0x1001132a:    9a0e        ..      LDR      r2,[sp,#0x38]
        0x1001132c:    9103        ..      STR      r1,[sp,#0xc]
        0x1001132e:    2100        .!      MOVS     r1,#0
        0x10011330:    9104        ..      STR      r1,[sp,#0x10]
        0x10011332:    9200        ..      STR      r2,[sp,#0]
        0x10011334:    46ba        .F      MOV      r10,r7
        0x10011336:    0721        !.      LSLS     r1,r4,#28
        0x10011338:    d40c        ..      BMI      0x10011354 ; _printf_core + 1384
        0x1001133a:    9903        ..      LDR      r1,[sp,#0xc]
        0x1001133c:    4551        QE      CMP      r1,r10
        0x1001133e:    da00        ..      BGE      0x10011342 ; _printf_core + 1366
        0x10011340:    468a        .F      MOV      r10,r1
        0x10011342:    f1ba0f01    ....    CMP      r10,#1
        0x10011346:    dd05        ..      BLE      0x10011354 ; _printf_core + 1384
        0x10011348:    9a00        ..      LDR      r2,[sp,#0]
        0x1001134a:    f1aa0101    ....    SUB      r1,r10,#1
        0x1001134e:    5c51        Q\      LDRB     r1,[r2,r1]
        0x10011350:    2930        0)      CMP      r1,#0x30
        0x10011352:    d008        ..      BEQ      0x10011366 ; _printf_core + 1402
        0x10011354:    42b8        .B      CMP      r0,r7
        0x10011356:    da02        ..      BGE      0x1001135e ; _printf_core + 1394
        0x10011358:    f1100f04    ....    CMN      r0,#4
        0x1001135c:    da06        ..      BGE      0x1001136c ; _printf_core + 1408
        0x1001135e:    2101        .!      MOVS     r1,#1
        0x10011360:    e9cd1001    ....    STRD     r1,r0,[sp,#4]
        0x10011364:    e015        ..      B        0x10011392 ; _printf_core + 1446
        0x10011366:    f1aa0101    ....    SUB      r1,r10,#1
        0x1001136a:    e7e9        ..      B        0x10011340 ; _printf_core + 1364
        0x1001136c:    2800        .(      CMP      r0,#0
        0x1001136e:    dc05        ..      BGT      0x1001137c ; _printf_core + 1424
        0x10011370:    9904        ..      LDR      r1,[sp,#0x10]
        0x10011372:    4401        .D      ADD      r1,r1,r0
        0x10011374:    9104        ..      STR      r1,[sp,#0x10]
        0x10011376:    ebaa0100    ....    SUB      r1,r10,r0
        0x1001137a:    e002        ..      B        0x10011382 ; _printf_core + 1430
        0x1001137c:    1c41        A.      ADDS     r1,r0,#1
        0x1001137e:    4551        QE      CMP      r1,r10
        0x10011380:    dd00        ..      BLE      0x10011384 ; _printf_core + 1432
        0x10011382:    468a        .F      MOV      r10,r1
        0x10011384:    9904        ..      LDR      r1,[sp,#0x10]
        0x10011386:    1a40        @.      SUBS     r0,r0,r1
        0x10011388:    1c40        @.      ADDS     r0,r0,#1
        0x1001138a:    9001        ..      STR      r0,[sp,#4]
        0x1001138c:    f04f4000    O..@    MOV      r0,#0x80000000
        0x10011390:    9002        ..      STR      r0,[sp,#8]
        0x10011392:    0720         .      LSLS     r0,r4,#28
        0x10011394:    d404        ..      BMI      0x100113a0 ; _printf_core + 1460
        0x10011396:    9801        ..      LDR      r0,[sp,#4]
        0x10011398:    4550        PE      CMP      r0,r10
        0x1001139a:    db01        ..      BLT      0x100113a0 ; _printf_core + 1460
        0x1001139c:    f8cd8004    ....    STR      r8,[sp,#4]
        0x100113a0:    2000        .       MOVS     r0,#0
        0x100113a2:    f88d004f    ..O.    STRB     r0,[sp,#0x4f]
        0x100113a6:    9802        ..      LDR      r0,[sp,#8]
        0x100113a8:    f10d074f    ..O.    ADD      r7,sp,#0x4f
        0x100113ac:    f1b04f00    ...O    CMP      r0,#0x80000000
        0x100113b0:    d025        %.      BEQ      0x100113fe ; _printf_core + 1554
        0x100113b2:    202b        +       MOVS     r0,#0x2b
        0x100113b4:    900e        ..      STR      r0,[sp,#0x38]
        0x100113b6:    9802        ..      LDR      r0,[sp,#8]
        0x100113b8:    f04f0802    O...    MOV      r8,#2
        0x100113bc:    2800        .(      CMP      r0,#0
        0x100113be:    da0c        ..      BGE      0x100113da ; _printf_core + 1518
        0x100113c0:    4240        @B      RSBS     r0,r0,#0
        0x100113c2:    9002        ..      STR      r0,[sp,#8]
        0x100113c4:    202d        -       MOVS     r0,#0x2d
        0x100113c6:    900e        ..      STR      r0,[sp,#0x38]
        0x100113c8:    e007        ..      B        0x100113da ; _printf_core + 1518
        0x100113ca:    210a        .!      MOVS     r1,#0xa
        0x100113cc:    9802        ..      LDR      r0,[sp,#8]
        0x100113ce:    f7feff63    ..c.    BL       __aeabi_uidiv ; 0x10010298
        0x100113d2:    3130        01      ADDS     r1,r1,#0x30
        0x100113d4:    9002        ..      STR      r0,[sp,#8]
        0x100113d6:    f8071d01    ....    STRB     r1,[r7,#-1]!
        0x100113da:    f1b80100    ....    SUBS     r1,r8,#0
        0x100113de:    f1a80801    ....    SUB      r8,r8,#1
        0x100113e2:    dcf2        ..      BGT      0x100113ca ; _printf_core + 1502
        0x100113e4:    9802        ..      LDR      r0,[sp,#8]
        0x100113e6:    2800        .(      CMP      r0,#0
        0x100113e8:    d1ef        ..      BNE      0x100113ca ; _printf_core + 1502
        0x100113ea:    1e79        y.      SUBS     r1,r7,#1
        0x100113ec:    980e        ..      LDR      r0,[sp,#0x38]
        0x100113ee:    7008        .p      STRB     r0,[r1,#0]
        0x100113f0:    7830        0x      LDRB     r0,[r6,#0]
        0x100113f2:    f0000020    .. .    AND      r0,r0,#0x20
        0x100113f6:    f0400045    @.E.    ORR      r0,r0,#0x45
        0x100113fa:    f8070d02    ....    STRB     r0,[r7,#-2]!
        0x100113fe:    a812        ..      ADD      r0,sp,#0x48
        0x10011400:    1bc0        ..      SUBS     r0,r0,r7
        0x10011402:    f1000807    ....    ADD      r8,r0,#7
        0x10011406:    9814        ..      LDR      r0,[sp,#0x50]
        0x10011408:    7800        .x      LDRB     r0,[r0,#0]
        0x1001140a:    b100        ..      CBZ      r0,0x1001140e ; _printf_core + 1570
        0x1001140c:    2001        .       MOVS     r0,#1
        0x1001140e:    eb00010a    ....    ADD      r1,r0,r10
        0x10011412:    9801        ..      LDR      r0,[sp,#4]
        0x10011414:    eb0171e0    ...q    ADD      r1,r1,r0,ASR #31
        0x10011418:    9805        ..      LDR      r0,[sp,#0x14]
        0x1001141a:    4441        AD      ADD      r1,r1,r8
        0x1001141c:    1a40        @.      SUBS     r0,r0,r1
        0x1001141e:    1e40        @.      SUBS     r0,r0,#1
        0x10011420:    9005        ..      STR      r0,[sp,#0x14]
        0x10011422:    03e0        ..      LSLS     r0,r4,#15
        0x10011424:    d406        ..      BMI      0x10011434 ; _printf_core + 1608
        0x10011426:    465b        [F      MOV      r3,r11
        0x10011428:    4621        !F      MOV      r1,r4
        0x1001142a:    9a17        ..      LDR      r2,[sp,#0x5c]
        0x1001142c:    9805        ..      LDR      r0,[sp,#0x14]
        0x1001142e:    f000f85d    ..].    BL       _printf_pre_padding ; 0x100114ec
        0x10011432:    4405        .D      ADD      r5,r5,r0
        0x10011434:    9814        ..      LDR      r0,[sp,#0x50]
        0x10011436:    7800        .x      LDRB     r0,[r0,#0]
        0x10011438:    b118        ..      CBZ      r0,0x10011442 ; _printf_core + 1622
        0x1001143a:    465a        ZF      MOV      r2,r11
        0x1001143c:    9917        ..      LDR      r1,[sp,#0x5c]
        0x1001143e:    4790        .G      BLX      r2
        0x10011440:    1c6d        m.      ADDS     r5,r5,#1
        0x10011442:    03e0        ..      LSLS     r0,r4,#15
        0x10011444:    d524        $.      BPL      0x10011490 ; _printf_core + 1700
        0x10011446:    465b        [F      MOV      r3,r11
        0x10011448:    4621        !F      MOV      r1,r4
        0x1001144a:    9a17        ..      LDR      r2,[sp,#0x5c]
        0x1001144c:    9805        ..      LDR      r0,[sp,#0x14]
        0x1001144e:    f000f84d    ..M.    BL       _printf_pre_padding ; 0x100114ec
        0x10011452:    4405        .D      ADD      r5,r5,r0
        0x10011454:    e01c        ..      B        0x10011490 ; _printf_core + 1700
        0x10011456:    9804        ..      LDR      r0,[sp,#0x10]
        0x10011458:    2800        .(      CMP      r0,#0
        0x1001145a:    db07        ..      BLT      0x1001146c ; _printf_core + 1664
        0x1001145c:    e9dd0103    ....    LDRD     r0,r1,[sp,#0xc]
        0x10011460:    4288        .B      CMP      r0,r1
        0x10011462:    dd03        ..      BLE      0x1001146c ; _printf_core + 1664
        0x10011464:    9800        ..      LDR      r0,[sp,#0]
        0x10011466:    5c40        @\      LDRB     r0,[r0,r1]
        0x10011468:    9917        ..      LDR      r1,[sp,#0x5c]
        0x1001146a:    e001        ..      B        0x10011470 ; _printf_core + 1668
        0x1001146c:    9917        ..      LDR      r1,[sp,#0x5c]
        0x1001146e:    2030        0       MOVS     r0,#0x30
        0x10011470:    465a        ZF      MOV      r2,r11
        0x10011472:    4790        .G      BLX      r2
        0x10011474:    9804        ..      LDR      r0,[sp,#0x10]
        0x10011476:    f1050501    ....    ADD      r5,r5,#1
        0x1001147a:    1c40        @.      ADDS     r0,r0,#1
        0x1001147c:    9004        ..      STR      r0,[sp,#0x10]
        0x1001147e:    9801        ..      LDR      r0,[sp,#4]
        0x10011480:    1e40        @.      SUBS     r0,r0,#1
        0x10011482:    9001        ..      STR      r0,[sp,#4]
        0x10011484:    d104        ..      BNE      0x10011490 ; _printf_core + 1700
        0x10011486:    202e        .       MOVS     r0,#0x2e
        0x10011488:    465a        ZF      MOV      r2,r11
        0x1001148a:    9917        ..      LDR      r1,[sp,#0x5c]
        0x1001148c:    4790        .G      BLX      r2
        0x1001148e:    1c6d        m.      ADDS     r5,r5,#1
        0x10011490:    f1ba0100    ....    SUBS     r1,r10,#0
        0x10011494:    f1aa0a01    ....    SUB      r10,r10,#1
        0x10011498:    dcdd        ..      BGT      0x10011456 ; _printf_core + 1642
        0x1001149a:    e005        ..      B        0x100114a8 ; _printf_core + 1724
        0x1001149c:    f8170b01    ....    LDRB     r0,[r7],#1
        0x100114a0:    465a        ZF      MOV      r2,r11
        0x100114a2:    9917        ..      LDR      r1,[sp,#0x5c]
        0x100114a4:    4790        .G      BLX      r2
        0x100114a6:    1c6d        m.      ADDS     r5,r5,#1
        0x100114a8:    f1b80100    ....    SUBS     r1,r8,#0
        0x100114ac:    f1a80801    ....    SUB      r8,r8,#1
        0x100114b0:    dcf4        ..      BGT      0x1001149c ; _printf_core + 1712
        0x100114b2:    465b        [F      MOV      r3,r11
        0x100114b4:    4621        !F      MOV      r1,r4
        0x100114b6:    9a17        ..      LDR      r2,[sp,#0x5c]
        0x100114b8:    9805        ..      LDR      r0,[sp,#0x14]
        0x100114ba:    e6ab        ..      B        0x10011214 ; _printf_core + 1064
    $d
        0x100114bc:    0000002d    -...    DCD    45
        0x100114c0:    0000002b    +...    DCD    43
        0x100114c4:    00000020     ...    DCD    32
    $t
    i._printf_post_padding
    _printf_post_padding
        0x100114c8:    e92d41f0    -..A    PUSH     {r4-r8,lr}
        0x100114cc:    4604        .F      MOV      r4,r0
        0x100114ce:    2500        .%      MOVS     r5,#0
        0x100114d0:    461e        .F      MOV      r6,r3
        0x100114d2:    4617        .F      MOV      r7,r2
        0x100114d4:    0488        ..      LSLS     r0,r1,#18
        0x100114d6:    d404        ..      BMI      0x100114e2 ; _printf_post_padding + 26
        0x100114d8:    e005        ..      B        0x100114e6 ; _printf_post_padding + 30
        0x100114da:    4639        9F      MOV      r1,r7
        0x100114dc:    2020                MOVS     r0,#0x20
        0x100114de:    47b0        .G      BLX      r6
        0x100114e0:    1c6d        m.      ADDS     r5,r5,#1
        0x100114e2:    1e64        d.      SUBS     r4,r4,#1
        0x100114e4:    d5f9        ..      BPL      0x100114da ; _printf_post_padding + 18
        0x100114e6:    4628        (F      MOV      r0,r5
        0x100114e8:    e8bd81f0    ....    POP      {r4-r8,pc}
    i._printf_pre_padding
    _printf_pre_padding
        0x100114ec:    e92d41f0    -..A    PUSH     {r4-r8,lr}
        0x100114f0:    4604        .F      MOV      r4,r0
        0x100114f2:    2500        .%      MOVS     r5,#0
        0x100114f4:    461e        .F      MOV      r6,r3
        0x100114f6:    4690        .F      MOV      r8,r2
        0x100114f8:    03c8        ..      LSLS     r0,r1,#15
        0x100114fa:    d501        ..      BPL      0x10011500 ; _printf_pre_padding + 20
        0x100114fc:    2730        0'      MOVS     r7,#0x30
        0x100114fe:    e000        ..      B        0x10011502 ; _printf_pre_padding + 22
        0x10011500:    2720         '      MOVS     r7,#0x20
        0x10011502:    0488        ..      LSLS     r0,r1,#18
        0x10011504:    d504        ..      BPL      0x10011510 ; _printf_pre_padding + 36
        0x10011506:    e005        ..      B        0x10011514 ; _printf_pre_padding + 40
        0x10011508:    4641        AF      MOV      r1,r8
        0x1001150a:    4638        8F      MOV      r0,r7
        0x1001150c:    47b0        .G      BLX      r6
        0x1001150e:    1c6d        m.      ADDS     r5,r5,#1
        0x10011510:    1e64        d.      SUBS     r4,r4,#1
        0x10011512:    d5f9        ..      BPL      0x10011508 ; _printf_pre_padding + 28
        0x10011514:    4628        (F      MOV      r0,r5
        0x10011516:    e8bd81f0    ....    POP      {r4-r8,pc}
    $d.realdata
        0x1001151a:    6f4e        No      DCW    28494
        0x1001151c:    646f6320     cod    DCD    1685021472
        0x10011520:    6e692065    e in    DCD    1852383333
        0x10011524:    6e6f6e20     non    DCD    1852796448
        0x10011528:    6365732d    -sec    DCD    1667593005
        0x1001152c:    20657275    ure     DCD    543519349
        0x10011530:    69676572    regi    DCD    1768383858
        0x10011534:    0a216e6f    on!.    DCD    169963119
        0x10011538:    00          .       DCB    0
    .L.str.5
        0x10011539:    2b2d2d      +--     DCB    43,45,45
        0x1001153c:    2d2d2d2d    ----    DCD    757935405
        0x10011540:    2d2d2d2d    ----    DCD    757935405
        0x10011544:    2d2d2d2d    ----    DCD    757935405
        0x10011548:    2d2d2d2d    ----    DCD    757935405
        0x1001154c:    2d2d2d2d    ----    DCD    757935405
        0x10011550:    2d2d2d2d    ----    DCD    757935405
        0x10011554:    2d2d2d2d    ----    DCD    757935405
        0x10011558:    2d2d2d2d    ----    DCD    757935405
        0x1001155c:    2d2d2d2d    ----    DCD    757935405
        0x10011560:    2d2d2d2d    ----    DCD    757935405
        0x10011564:    2b2d2d2d    ---+    DCD    724380973
        0x10011568:    7845000a    ..Ex    DCD    2017787914
        0x1001156c:    74756365    ecut    DCD    1953850213
        0x10011570:    6f6e2065    e no    DCD    1869488229
        0x10011574:    65732d6e    n-se    DCD    1702047086
        0x10011578:    65727563    cure    DCD    1701999971
        0x1001157c:    646f6320     cod    DCD    1685021472
        0x10011580:    2e2e2065    e ..    DCD    774774885
        0x10011584:    0a2e        ..      DCW    2606
        0x10011586:    00          .       DCB    0
    .L.str.1
        0x10011587:    4e          N       DCB    78
        0x10011588:    65736e6f    onse    DCD    1702063727
        0x1001158c:    65727563    cure    DCD    1701999971
        0x10011590:    44454c20     LED    DCD    1145392160
        0x10011594:    66664f20     Off    DCD    1717980960
        0x10011598:    6c616320     cal    DCD    1818321696
        0x1001159c:    7962206c    l by    DCD    2036473964
        0x100115a0:    63655320     Sec    DCD    1667584800
        0x100115a4:    0a657275    ure.    DCD    174420597
        0x100115a8:    00          .       DCB    0
    .L.str
        0x100115a9:    4e6f6e      Non     DCB    78,111,110
        0x100115ac:    75636573    secu    DCD    1969448307
        0x100115b0:    4c206572    re L    DCD    1277191538
        0x100115b4:    4f204445    ED O    DCD    1327514693
        0x100115b8:    6163206e    n ca    DCD    1633886318
        0x100115bc:    62206c6c    ll b    DCD    1646292076
        0x100115c0:    65532079    y Se    DCD    1699946617
        0x100115c4:    65727563    cure    DCD    1701999971
        0x100115c8:    000a        ..      DCW    10
    .L.str.3
        0x100115ca:    6f4e        No      DCW    28494
        0x100115cc:    6365736e    nsec    DCD    1667593070
        0x100115d0:    20657275    ure     DCD    543519349
        0x100115d4:    2044454c    LED     DCD    541345100
        0x100115d8:    0a66664f    Off.    DCD    174483023
        0x100115dc:    00          .       DCB    0
    .L.str.2
        0x100115dd:    4e6f6e      Non     DCB    78,111,110
        0x100115e0:    75636573    secu    DCD    1969448307
        0x100115e4:    6572        re      DCW    25970
    .L.str.7
        0x100115e6:    4c20         L      DCW    19488
        0x100115e8:    4f204445    ED O    DCD    1327514693
        0x100115ec:    0a6e        n.      DCW    2670
        0x100115ee:    00          .       DCB    0
    .L.str.6
        0x100115ef:    7c          |       DCB    124
        0x100115f0:    20202020            DCD    538976288
        0x100115f4:    20202020            DCD    538976288
        0x100115f8:    4e202020       N    DCD    1310728224
        0x100115fc:    65736e6f    onse    DCD    1702063727
        0x10011600:    7563        cu      DCW    30051
        0x10011602:    72          r       DCB    114
    .L.str.8
        0x10011603:    65          e       DCB    101
        0x10011604:    20736920     is     DCD    544434464
        0x10011608:    6e6e7572    runn    DCD    1852732786
        0x1001160c:    20676e69    ing     DCD    543649385
        0x10011610:    202e2e2e    ...     DCD    539897390
        0x10011614:    20202020            DCD    538976288
        0x10011618:    20202020            DCD    538976288
        0x1001161c:    7c20         |      DCW    31776
    .L.str.4
        0x1001161e:    000a        ..      DCW    10
    Region$$Table$$Base
        0x10011620:    10011640    @...    DCD    268506688
        0x10011624:    30008200    ...0    DCD    805339648
        0x10011628:    0000000c    ....    DCD    12
        0x1001162c:    10010c48    H...    DCD    268504136
        0x10011630:    1001164c    L...    DCD    268506700
        0x10011634:    3000820c    ...0    DCD    805339660
        0x10011638:    00000058    X...    DCD    88
        0x1001163c:    10010c58    X...    DCD    268504152
    Region$$Table$$Limit

** Section #2 'ARM_LIB_STACK' (SHT_NOBITS) [SHF_ALLOC + SHF_WRITE]
    Size   : 512 bytes
    Address: 0x30008000


** Section #3 'EXE_RAM' (SHT_PROGBITS) [SHF_ALLOC + SHF_WRITE]
    Size   : 12 bytes (alignment 4)
    Address: 0x30008200


** Section #4 'EXE_RAM' (SHT_NOBITS) [SHF_ALLOC + SHF_WRITE]
    Size   : 88 bytes (alignment 4)
    Address: 0x3000820c


** Section #5 'ARM_LIB_HEAP' (SHT_NOBITS) [SHF_ALLOC + SHF_WRITE]
    Size   : 3072 bytes
    Address: 0x30008268


** Section #6 '.debug_abbrev' (SHT_PROGBITS)
    Size   : 1501 bytes


** Section #7 '.debug_frame' (SHT_PROGBITS)
    Size   : 1756 bytes


** Section #8 '.debug_info' (SHT_PROGBITS)
    Size   : 8862 bytes


** Section #9 '.debug_line' (SHT_PROGBITS)
    Size   : 3535 bytes


** Section #10 '.debug_ranges' (SHT_PROGBITS)
    Size   : 312 bytes


** Section #11 '.debug_str' (SHT_PROGBITS)
    Size   : 6041 bytes


** Section #12 '.symtab' (SHT_SYMTAB)
    Size   : 4736 bytes (alignment 4)
    String table #13 '.strtab'
    Last local symbol no. 105


** Section #13 '.strtab' (SHT_STRTAB)
    Size   : 4440 bytes


** Section #14 '.note' (SHT_NOTE)
    Size   : 36 bytes (alignment 4)


** Section #15 '.comment' (SHT_PROGBITS)
    Size   : 904 bytes


** Section #16 '.shstrtab' (SHT_STRTAB)
    Size   : 164 bytes


